
kernel/kernel:     file format elf32-i386


Disassembly of section .text:

00100000 <kernel_start>:
  100000:	02 b0 ad 1b 00 00    	add    0x1bad(%eax),%dh
  100006:	00 00                	add    %al,(%eax)
  100008:	fe 4f 52             	decb   0x52(%edi)
  10000b:	e4 66                	in     $0x66,%al
  10000d:	90                   	nop
  10000e:	66 90                	xchg   %ax,%ax

00100010 <init>:
#include "pmm.h"
#include "vfs.h"

#define _VERSION "alphaKernelDev 1.01"

void init(struct multiboot_info* mb_info) {
  100010:	55                   	push   %ebp
  100011:	89 e5                	mov    %esp,%ebp
  100013:	83 ec 28             	sub    $0x28,%esp
  100016:	8b 45 08             	mov    0x8(%ebp),%eax
  100019:	89 45 fc             	mov    %eax,-0x4(%ebp)
	clrscr();
  10001c:	e8 af 04 00 00       	call   1004d0 <clrscr>
	pmm_init(mb_info);
  100021:	8b 45 fc             	mov    -0x4(%ebp),%eax
  100024:	89 04 24             	mov    %eax,(%esp)
  100027:	e8 44 21 00 00       	call   102170 <pmm_init>
  10002c:	8d 05 44 60 10 00    	lea    0x106044,%eax
  100032:	8d 0d 67 60 10 00    	lea    0x106067,%ecx

	kprintf("Welcome to mikrOS (version '%s')!\n", _VERSION);
  100038:	89 04 24             	mov    %eax,(%esp)
  10003b:	89 4c 24 04          	mov    %ecx,0x4(%esp)
  10003f:	e8 0c 05 00 00       	call   100550 <kprintf>
  100044:	8d 0d 7b 60 10 00    	lea    0x10607b,%ecx
	kprintf("(C) Copyright 2012-2014 Fabian Sachara.  All Rights Reserved.\n");
  10004a:	89 0c 24             	mov    %ecx,(%esp)
  10004d:	89 45 f8             	mov    %eax,-0x8(%ebp)
  100050:	e8 fb 04 00 00       	call   100550 <kprintf>
  100055:	8d 0d ba 60 10 00    	lea    0x1060ba,%ecx

	kprintf("Initializing GDT...\n");
  10005b:	89 0c 24             	mov    %ecx,(%esp)
  10005e:	89 45 f4             	mov    %eax,-0xc(%ebp)
  100061:	e8 ea 04 00 00       	call   100550 <kprintf>

	init_gdt();
  100066:	89 45 f0             	mov    %eax,-0x10(%ebp)
  100069:	e8 a2 0a 00 00       	call   100b10 <init_gdt>
  10006e:	8d 05 cf 60 10 00    	lea    0x1060cf,%eax

	kprintf("Initializing IDT...\n");
  100074:	89 04 24             	mov    %eax,(%esp)
  100077:	e8 d4 04 00 00       	call   100550 <kprintf>
  10007c:	8d 0d e4 60 10 00    	lea    0x1060e4,%ecx

	init_idt();
  100082:	89 45 ec             	mov    %eax,-0x14(%ebp)
  100085:	89 4d e8             	mov    %ecx,-0x18(%ebp)
  100088:	e8 a3 0c 00 00       	call   100d30 <init_idt>

	kprintf("Initializing in-kernel-Drivers...\n");
  10008d:	8b 45 e8             	mov    -0x18(%ebp),%eax
  100090:	89 04 24             	mov    %eax,(%esp)
  100093:	e8 b8 04 00 00       	call   100550 <kprintf>

	init_drivers();
  100098:	89 45 e4             	mov    %eax,-0x1c(%ebp)
  10009b:	e8 30 00 00 00       	call   1000d0 <init_drivers>
  1000a0:	8d 05 07 61 10 00    	lea    0x106107,%eax

	kprintf("Initializing Kernel...\n");
  1000a6:	89 04 24             	mov    %eax,(%esp)
  1000a9:	e8 a2 04 00 00       	call   100550 <kprintf>

	pmm_print_stats();
  1000ae:	89 45 e0             	mov    %eax,-0x20(%ebp)
  1000b1:	e8 ca 1e 00 00       	call   101f80 <pmm_print_stats>

	kernel_main(mb_info);
  1000b6:	8b 45 fc             	mov    -0x4(%ebp),%eax
  1000b9:	89 04 24             	mov    %eax,(%esp)
  1000bc:	e8 ff 1c 00 00       	call   101dc0 <kernel_main>

	return;
  1000c1:	83 c4 28             	add    $0x28,%esp
  1000c4:	5d                   	pop    %ebp
  1000c5:	c3                   	ret    
  1000c6:	66 2e 0f 1f 84 00 00 	nopw   %cs:0x0(%eax,%eax,1)
  1000cd:	00 00 00 

001000d0 <init_drivers>:
#ifndef DRVINIT_H
#define DRVINIT_H

#include "keyboard.h"

static inline void init_drivers() {
  1000d0:	55                   	push   %ebp
  1000d1:	89 e5                	mov    %esp,%ebp
    init_keyboard_drv();
  1000d3:	83 ec 08             	sub    $0x8,%esp
  1000d6:	e8 05 02 00 00       	call   1002e0 <init_keyboard_drv>
}
  1000db:	83 c4 08             	add    $0x8,%esp
  1000de:	5d                   	pop    %ebp
  1000df:	c3                   	ret    

001000e0 <translate_scancode>:

static uint8_t buffer[4096];
static int bfindex = 0;

uint8_t translate_scancode(int set, uint16_t scancode)
{
  1000e0:	55                   	push   %ebp
  1000e1:	89 e5                	mov    %esp,%ebp
  1000e3:	83 ec 28             	sub    $0x28,%esp
  1000e6:	0f b7 45 0c          	movzwl 0xc(%ebp),%eax
  1000ea:	66 89 c1             	mov    %ax,%cx
  1000ed:	8b 45 08             	mov    0x8(%ebp),%eax
  1000f0:	89 45 fc             	mov    %eax,-0x4(%ebp)
  1000f3:	66 89 4d fa          	mov    %cx,-0x6(%ebp)
  uint8_t keycode = 0;
  1000f7:	c6 45 f9 00          	movb   $0x0,-0x7(%ebp)

  switch (set) {
  1000fb:	8b 45 fc             	mov    -0x4(%ebp),%eax
  1000fe:	89 c2                	mov    %eax,%edx
  100100:	83 ea 02             	sub    $0x2,%edx
  100103:	89 45 f4             	mov    %eax,-0xc(%ebp)
  100106:	89 55 f0             	mov    %edx,-0x10(%ebp)
  100109:	0f 84 4f 00 00 00    	je     10015e <translate_scancode+0x7e>
  10010f:	e9 00 00 00 00       	jmp    100114 <translate_scancode+0x34>
  100114:	8b 45 f4             	mov    -0xc(%ebp),%eax
  100117:	83 e8 01             	sub    $0x1,%eax
  10011a:	89 45 ec             	mov    %eax,-0x14(%ebp)
  10011d:	0f 84 28 00 00 00    	je     10014b <translate_scancode+0x6b>
  100123:	e9 00 00 00 00       	jmp    100128 <translate_scancode+0x48>
  100128:	8b 45 f4             	mov    -0xc(%ebp),%eax
  10012b:	85 c0                	test   %eax,%eax
  10012d:	0f 85 54 00 00 00    	jne    100187 <translate_scancode+0xa7>
  100133:	e9 00 00 00 00       	jmp    100138 <translate_scancode+0x58>
    case 0:
      keycode = sc_to_kc[0][scancode];
  100138:	0f b7 45 fa          	movzwl -0x6(%ebp),%eax
  10013c:	8a 0c 05 00 50 10 00 	mov    0x105000(,%eax,1),%cl
  100143:	88 4d f9             	mov    %cl,-0x7(%ebp)
      break;
  100146:	e9 3c 00 00 00       	jmp    100187 <translate_scancode+0xa7>
    case 1:
      keycode = sc_to_kc[1][scancode];
  10014b:	0f b7 45 fa          	movzwl -0x6(%ebp),%eax
  10014f:	8a 0c 05 80 50 10 00 	mov    0x105080(,%eax,1),%cl
  100156:	88 4d f9             	mov    %cl,-0x7(%ebp)
      break;
  100159:	e9 29 00 00 00       	jmp    100187 <translate_scancode+0xa7>
    case 2:
      switch (scancode) {
  10015e:	0f b7 45 fa          	movzwl -0x6(%ebp),%eax
  100162:	2d 1d 45 00 00       	sub    $0x451d,%eax
  100167:	89 45 e8             	mov    %eax,-0x18(%ebp)
  10016a:	0f 85 0e 00 00 00    	jne    10017e <translate_scancode+0x9e>
  100170:	e9 00 00 00 00       	jmp    100175 <translate_scancode+0x95>
        case 0x451D:
          keycode = 119;
  100175:	c6 45 f9 77          	movb   $0x77,-0x7(%ebp)
          break;
  100179:	e9 04 00 00 00       	jmp    100182 <translate_scancode+0xa2>

        default:
          keycode = 0x0;	
  10017e:	c6 45 f9 00          	movb   $0x0,-0x7(%ebp)
      };
      break;
  100182:	e9 00 00 00 00       	jmp    100187 <translate_scancode+0xa7>
  }

  if (keycode == 0) {
  100187:	0f b6 45 f9          	movzbl -0x7(%ebp),%eax
  10018b:	3d 00 00 00 00       	cmp    $0x0,%eax
  100190:	0f 85 20 00 00 00    	jne    1001b6 <translate_scancode+0xd6>
  100196:	8d 05 1f 61 10 00    	lea    0x10611f,%eax
      kprintf("kbc: Unbekannter Scancode: 0x%x (%d)\n", scancode, set);
  10019c:	0f b7 4d fa          	movzwl -0x6(%ebp),%ecx
  1001a0:	8b 55 fc             	mov    -0x4(%ebp),%edx
  1001a3:	89 04 24             	mov    %eax,(%esp)
  1001a6:	89 4c 24 04          	mov    %ecx,0x4(%esp)
  1001aa:	89 54 24 08          	mov    %edx,0x8(%esp)
  1001ae:	e8 9d 03 00 00       	call   100550 <kprintf>
  1001b3:	89 45 e4             	mov    %eax,-0x1c(%ebp)
  }

  return keycode;
  1001b6:	0f b6 45 f9          	movzbl -0x7(%ebp),%eax
  1001ba:	83 c4 28             	add    $0x28,%esp
  1001bd:	5d                   	pop    %ebp
  1001be:	c3                   	ret    
  1001bf:	90                   	nop

001001c0 <keyboard_handler>:
}

void keyboard_handler() {    
  1001c0:	55                   	push   %ebp
  1001c1:	89 e5                	mov    %esp,%ebp
  return;
  1001c3:	5d                   	pop    %ebp
  1001c4:	c3                   	ret    
  1001c5:	66 66 2e 0f 1f 84 00 	data32 nopw %cs:0x0(%eax,%eax,1)
  1001cc:	00 00 00 00 

001001d0 <getc>:
		//buffer[bfindex] = keycode;
		//bfindex++;	
	}
}

char getc() {
  1001d0:	55                   	push   %ebp
  1001d1:	89 e5                	mov    %esp,%ebp
	char ret = buffer[0];
  1001d3:	83 ec 08             	sub    $0x8,%esp
  1001d6:	a0 0a 70 10 00       	mov    0x10700a,%al
  1001db:	88 45 ff             	mov    %al,-0x1(%ebp)
	
	int i;
	for(i = 0; i < bfindex; i++) {
  1001de:	c7 45 f8 00 00 00 00 	movl   $0x0,-0x8(%ebp)
  1001e5:	8b 45 f8             	mov    -0x8(%ebp),%eax
  1001e8:	3b 05 0c 80 10 00    	cmp    0x10800c,%eax
  1001ee:	0f 8d 24 00 00 00    	jge    100218 <getc+0x48>
		buffer[i] = buffer[i+1];	
  1001f4:	8b 45 f8             	mov    -0x8(%ebp),%eax
  1001f7:	8a 0c 05 0b 70 10 00 	mov    0x10700b(,%eax,1),%cl
  1001fe:	8b 45 f8             	mov    -0x8(%ebp),%eax
  100201:	88 0c 05 0a 70 10 00 	mov    %cl,0x10700a(,%eax,1)

char getc() {
	char ret = buffer[0];
	
	int i;
	for(i = 0; i < bfindex; i++) {
  100208:	8b 45 f8             	mov    -0x8(%ebp),%eax
  10020b:	05 01 00 00 00       	add    $0x1,%eax
  100210:	89 45 f8             	mov    %eax,-0x8(%ebp)
  100213:	e9 cd ff ff ff       	jmp    1001e5 <getc+0x15>
		buffer[i] = buffer[i+1];	
	}
	bfindex--;
  100218:	a1 0c 80 10 00       	mov    0x10800c,%eax
  10021d:	05 ff ff ff ff       	add    $0xffffffff,%eax
  100222:	a3 0c 80 10 00       	mov    %eax,0x10800c

	return ret;
  100227:	0f be 45 ff          	movsbl -0x1(%ebp),%eax
  10022b:	83 c4 08             	add    $0x8,%esp
  10022e:	5d                   	pop    %ebp
  10022f:	c3                   	ret    

00100230 <send_command>:
}

void send_command(uint8_t command) {
  100230:	55                   	push   %ebp
  100231:	89 e5                	mov    %esp,%ebp
  100233:	83 ec 18             	sub    $0x18,%esp
  100236:	8a 45 08             	mov    0x8(%ebp),%al
  100239:	88 45 ff             	mov    %al,-0x1(%ebp)
  10023c:	b8 64 00 00 00       	mov    $0x64,%eax
	while((inb(0x64) & 0x2)) { }
  100241:	c7 04 24 64 00 00 00 	movl   $0x64,(%esp)
  100248:	89 45 f8             	mov    %eax,-0x8(%ebp)
  10024b:	e8 40 00 00 00       	call   100290 <inb>
  100250:	0f b6 c8             	movzbl %al,%ecx
  100253:	81 e1 02 00 00 00    	and    $0x2,%ecx
  100259:	81 f9 00 00 00 00    	cmp    $0x0,%ecx
  10025f:	0f 84 05 00 00 00    	je     10026a <send_command+0x3a>
  100265:	e9 d2 ff ff ff       	jmp    10023c <send_command+0xc>
  10026a:	b8 60 00 00 00       	mov    $0x60,%eax
	outb(0x60, command);
  10026f:	c7 04 24 60 00 00 00 	movl   $0x60,(%esp)
  100276:	0f b6 4d ff          	movzbl -0x1(%ebp),%ecx
  10027a:	89 4c 24 04          	mov    %ecx,0x4(%esp)
  10027e:	89 45 f4             	mov    %eax,-0xc(%ebp)
  100281:	e8 2a 00 00 00       	call   1002b0 <outb>
}
  100286:	83 c4 18             	add    $0x18,%esp
  100289:	5d                   	pop    %ebp
  10028a:	c3                   	ret    
  10028b:	0f 1f 44 00 00       	nopl   0x0(%eax,%eax,1)

00100290 <inb>:
    uint16_t result;
    asm volatile ("inw %1, %0" : "=a" (result) : "Nd" (_port));
    return result;
}

static inline uint8_t inb(uint16_t _port) {
  100290:	55                   	push   %ebp
  100291:	89 e5                	mov    %esp,%ebp
  100293:	50                   	push   %eax
  100294:	0f b7 45 08          	movzwl 0x8(%ebp),%eax
  100298:	66 89 c1             	mov    %ax,%cx
  10029b:	66 89 4d fe          	mov    %cx,-0x2(%ebp)
    uint8_t result;
    asm volatile ("inb %1, %0" : "=a" (result) : "Nd" (_port));
  10029f:	66 8b 55 fe          	mov    -0x2(%ebp),%dx
  1002a3:	ec                   	in     (%dx),%al
  1002a4:	88 45 fd             	mov    %al,-0x3(%ebp)
    return result;
  1002a7:	0f b6 45 fd          	movzbl -0x3(%ebp),%eax
  1002ab:	83 c4 04             	add    $0x4,%esp
  1002ae:	5d                   	pop    %ebp
  1002af:	c3                   	ret    

001002b0 <outb>:

static inline void outw(uint16_t _port, uint16_t _data) {
    asm volatile ("outw %0, %1" : : "a" (_data), "Nd" (_port));
}

static inline void outb(uint16_t _port, uint8_t _data) {
  1002b0:	55                   	push   %ebp
  1002b1:	89 e5                	mov    %esp,%ebp
  1002b3:	50                   	push   %eax
  1002b4:	0f b7 45 08          	movzwl 0x8(%ebp),%eax
  1002b8:	66 89 c1             	mov    %ax,%cx
  1002bb:	8a 55 0c             	mov    0xc(%ebp),%dl
  1002be:	66 89 4d fe          	mov    %cx,-0x2(%ebp)
  1002c2:	88 55 fd             	mov    %dl,-0x3(%ebp)
    asm volatile ("outb %0, %1" : : "a" (_data), "Nd" (_port));
  1002c5:	8a 45 fd             	mov    -0x3(%ebp),%al
  1002c8:	66 8b 55 fe          	mov    -0x2(%ebp),%dx
  1002cc:	ee                   	out    %al,(%dx)
}
  1002cd:	83 c4 04             	add    $0x4,%esp
  1002d0:	5d                   	pop    %ebp
  1002d1:	c3                   	ret    
  1002d2:	66 66 66 66 66 2e 0f 	data32 data32 data32 data32 nopw %cs:0x0(%eax,%eax,1)
  1002d9:	1f 84 00 00 00 00 00 

001002e0 <init_keyboard_drv>:

void init_keyboard_drv() {
  1002e0:	55                   	push   %ebp
  1002e1:	89 e5                	mov    %esp,%ebp
  1002e3:	83 ec 28             	sub    $0x28,%esp
  1002e6:	b8 21 00 00 00       	mov    $0x21,%eax
  1002eb:	8d 0d c0 01 10 00    	lea    0x1001c0,%ecx
	register_intr_handler(0x21, &keyboard_handler);
  1002f1:	c7 04 24 21 00 00 00 	movl   $0x21,(%esp)
  1002f8:	89 4c 24 04          	mov    %ecx,0x4(%esp)
  1002fc:	89 45 fc             	mov    %eax,-0x4(%ebp)
  1002ff:	e8 5c 16 00 00       	call   101960 <register_intr_handler>
  100304:	b8 64 00 00 00       	mov    $0x64,%eax

	while(inb(0x64) & 0x1) {
  100309:	c7 04 24 64 00 00 00 	movl   $0x64,(%esp)
  100310:	89 45 f8             	mov    %eax,-0x8(%ebp)
  100313:	e8 78 ff ff ff       	call   100290 <inb>
  100318:	0f b6 c8             	movzbl %al,%ecx
  10031b:	81 e1 01 00 00 00    	and    $0x1,%ecx
  100321:	81 f9 00 00 00 00    	cmp    $0x0,%ecx
  100327:	0f 84 1c 00 00 00    	je     100349 <init_keyboard_drv+0x69>
  10032d:	b8 60 00 00 00       	mov    $0x60,%eax
		inb(0x60);
  100332:	c7 04 24 60 00 00 00 	movl   $0x60,(%esp)
  100339:	89 45 f4             	mov    %eax,-0xc(%ebp)
  10033c:	e8 4f ff ff ff       	call   100290 <inb>
	}
  100341:	88 45 f3             	mov    %al,-0xd(%ebp)
  100344:	e9 bb ff ff ff       	jmp    100304 <init_keyboard_drv+0x24>
  100349:	b8 f4 00 00 00       	mov    $0xf4,%eax

	send_command(0xF4);
  10034e:	c7 04 24 f4 00 00 00 	movl   $0xf4,(%esp)
  100355:	89 45 ec             	mov    %eax,-0x14(%ebp)
  100358:	e8 d3 fe ff ff       	call   100230 <send_command>

	init_done = 1;
  10035d:	c7 05 10 80 10 00 01 	movl   $0x1,0x108010
  100364:	00 00 00 
}
  100367:	83 c4 28             	add    $0x28,%esp
  10036a:	5d                   	pop    %ebp
  10036b:	c3                   	ret    
  10036c:	66 90                	xchg   %ax,%ax
  10036e:	66 90                	xchg   %ax,%ax

00100370 <show_cod>:
#include "catofdeath.h"

void show_cod(struct cpu_state* cpu, char* fstr) {
  100370:	55                   	push   %ebp
  100371:	89 e5                	mov    %esp,%ebp
  100373:	56                   	push   %esi
  100374:	83 ec 24             	sub    $0x24,%esp
  100377:	8b 45 0c             	mov    0xc(%ebp),%eax
  10037a:	8b 4d 08             	mov    0x8(%ebp),%ecx
  10037d:	ba 04 00 00 00       	mov    $0x4,%edx
  100382:	89 4d f8             	mov    %ecx,-0x8(%ebp)
  100385:	89 45 f4             	mov    %eax,-0xc(%ebp)
    kprintf ("          '''  \\   `-._.'`---^_))) \n");
    kprintf ("                `-._ )))       ``` \n");
    kprintf ("                     ```            \n");
#endif

    setclr(0x04);
  100388:	c7 04 24 04 00 00 00 	movl   $0x4,(%esp)
  10038f:	89 55 f0             	mov    %edx,-0x10(%ebp)
  100392:	e8 99 01 00 00       	call   100530 <setclr>
    kprintf(fstr);
  100397:	8b 45 f4             	mov    -0xc(%ebp),%eax
  10039a:	89 04 24             	mov    %eax,(%esp)
  10039d:	e8 ae 01 00 00       	call   100550 <kprintf>
  1003a2:	8d 0d 45 61 10 00    	lea    0x106145,%ecx
    kprintf("\n\nException I:%d E:%x, Kernel halt!\n", cpu->intr, cpu->error);
  1003a8:	8b 55 f8             	mov    -0x8(%ebp),%edx
  1003ab:	8b 52 1c             	mov    0x1c(%edx),%edx
  1003ae:	8b 75 f8             	mov    -0x8(%ebp),%esi
  1003b1:	8b 76 20             	mov    0x20(%esi),%esi
  1003b4:	89 0c 24             	mov    %ecx,(%esp)
  1003b7:	89 54 24 04          	mov    %edx,0x4(%esp)
  1003bb:	89 74 24 08          	mov    %esi,0x8(%esp)
  1003bf:	89 45 ec             	mov    %eax,-0x14(%ebp)
  1003c2:	e8 89 01 00 00       	call   100550 <kprintf>
    show_dump(cpu);
  1003c7:	8b 4d f8             	mov    -0x8(%ebp),%ecx
  1003ca:	89 0c 24             	mov    %ecx,(%esp)
  1003cd:	89 45 e8             	mov    %eax,-0x18(%ebp)
  1003d0:	e8 0b 00 00 00       	call   1003e0 <show_dump>

    while (1) {
        asm volatile("cli; hlt");
  1003d5:	fa                   	cli    
  1003d6:	f4                   	hlt    
    }
  1003d7:	e9 f9 ff ff ff       	jmp    1003d5 <show_cod+0x65>
  1003dc:	0f 1f 40 00          	nopl   0x0(%eax)

001003e0 <show_dump>:
}

void show_dump(struct cpu_state* cpu) {
  1003e0:	55                   	push   %ebp
  1003e1:	89 e5                	mov    %esp,%ebp
  1003e3:	53                   	push   %ebx
  1003e4:	57                   	push   %edi
  1003e5:	56                   	push   %esi
  1003e6:	83 ec 2c             	sub    $0x2c,%esp
  1003e9:	8b 45 08             	mov    0x8(%ebp),%eax
  1003ec:	8d 0d 6a 61 10 00    	lea    0x10616a,%ecx
  1003f2:	89 45 f0             	mov    %eax,-0x10(%ebp)
    kprintf("EAX: %x EBX: %x ECX: %x EDX: %x\n", cpu->eax, cpu->ebx, cpu->ecx,
  1003f5:	8b 45 f0             	mov    -0x10(%ebp),%eax
  1003f8:	8b 00                	mov    (%eax),%eax
  1003fa:	8b 55 f0             	mov    -0x10(%ebp),%edx
  1003fd:	8b 52 04             	mov    0x4(%edx),%edx
  100400:	8b 75 f0             	mov    -0x10(%ebp),%esi
  100403:	8b 76 08             	mov    0x8(%esi),%esi
  100406:	8b 7d f0             	mov    -0x10(%ebp),%edi
  100409:	8b 7f 0c             	mov    0xc(%edi),%edi
  10040c:	89 0c 24             	mov    %ecx,(%esp)
  10040f:	89 44 24 04          	mov    %eax,0x4(%esp)
  100413:	89 54 24 08          	mov    %edx,0x8(%esp)
  100417:	89 74 24 0c          	mov    %esi,0xc(%esp)
  10041b:	89 7c 24 10          	mov    %edi,0x10(%esp)
  10041f:	e8 2c 01 00 00       	call   100550 <kprintf>
  100424:	8d 0d 8b 61 10 00    	lea    0x10618b,%ecx
            cpu->edx);
    kprintf("ESI: %x EDI: %x EBP: %x EIP: %x\n", cpu->esi, cpu->edi, cpu->ebp,
  10042a:	8b 55 f0             	mov    -0x10(%ebp),%edx
  10042d:	8b 52 10             	mov    0x10(%edx),%edx
  100430:	8b 75 f0             	mov    -0x10(%ebp),%esi
  100433:	8b 76 14             	mov    0x14(%esi),%esi
  100436:	8b 7d f0             	mov    -0x10(%ebp),%edi
  100439:	8b 7f 18             	mov    0x18(%edi),%edi
  10043c:	8b 5d f0             	mov    -0x10(%ebp),%ebx
  10043f:	8b 5b 24             	mov    0x24(%ebx),%ebx
  100442:	89 0c 24             	mov    %ecx,(%esp)
  100445:	89 54 24 04          	mov    %edx,0x4(%esp)
  100449:	89 74 24 08          	mov    %esi,0x8(%esp)
  10044d:	89 7c 24 0c          	mov    %edi,0xc(%esp)
  100451:	89 5c 24 10          	mov    %ebx,0x10(%esp)
  100455:	89 45 e8             	mov    %eax,-0x18(%ebp)
  100458:	e8 f3 00 00 00       	call   100550 <kprintf>
  10045d:	8d 0d ac 61 10 00    	lea    0x1061ac,%ecx
            cpu->eip);
    kprintf("CS: %x EFLAGS: %x ESP: %x SS: %x\n", cpu->cs, cpu->eflags,
  100463:	8b 55 f0             	mov    -0x10(%ebp),%edx
  100466:	8b 52 28             	mov    0x28(%edx),%edx
  100469:	8b 75 f0             	mov    -0x10(%ebp),%esi
  10046c:	8b 76 2c             	mov    0x2c(%esi),%esi
  10046f:	8b 7d f0             	mov    -0x10(%ebp),%edi
  100472:	8b 7f 30             	mov    0x30(%edi),%edi
  100475:	8b 5d f0             	mov    -0x10(%ebp),%ebx
  100478:	8b 5b 34             	mov    0x34(%ebx),%ebx
  10047b:	89 0c 24             	mov    %ecx,(%esp)
  10047e:	89 54 24 04          	mov    %edx,0x4(%esp)
  100482:	89 74 24 08          	mov    %esi,0x8(%esp)
  100486:	89 7c 24 0c          	mov    %edi,0xc(%esp)
  10048a:	89 5c 24 10          	mov    %ebx,0x10(%esp)
  10048e:	89 45 e4             	mov    %eax,-0x1c(%ebp)
  100491:	e8 ba 00 00 00       	call   100550 <kprintf>
  100496:	8d 0d ce 61 10 00    	lea    0x1061ce,%ecx
            cpu->esp, cpu->ss);

    uint32_t cr2 = 0;
  10049c:	c7 45 ec 00 00 00 00 	movl   $0x0,-0x14(%ebp)

    asm volatile("mov %%cr2, %0" : "=r" (cr2));
  1004a3:	0f 20 d2             	mov    %cr2,%edx
  1004a6:	89 55 ec             	mov    %edx,-0x14(%ebp)

    kprintf("CR2: %x \n", cr2);
  1004a9:	8b 55 ec             	mov    -0x14(%ebp),%edx
  1004ac:	89 0c 24             	mov    %ecx,(%esp)
  1004af:	89 54 24 04          	mov    %edx,0x4(%esp)
  1004b3:	89 45 e0             	mov    %eax,-0x20(%ebp)
  1004b6:	e8 95 00 00 00       	call   100550 <kprintf>
}
  1004bb:	89 45 dc             	mov    %eax,-0x24(%ebp)
  1004be:	83 c4 2c             	add    $0x2c,%esp
  1004c1:	5e                   	pop    %esi
  1004c2:	5f                   	pop    %edi
  1004c3:	5b                   	pop    %ebx
  1004c4:	5d                   	pop    %ebp
  1004c5:	c3                   	ret    
  1004c6:	66 90                	xchg   %ax,%ax
  1004c8:	66 90                	xchg   %ax,%ax
  1004ca:	66 90                	xchg   %ax,%ax
  1004cc:	66 90                	xchg   %ax,%ax
  1004ce:	66 90                	xchg   %ax,%ax

001004d0 <clrscr>:
        x /= base;
    } while (x);
    kputs(p);
}

void clrscr(void) {
  1004d0:	55                   	push   %ebp
  1004d1:	89 e5                	mov    %esp,%ebp
    int i;
    for (i = 0; i < 2 * 25 * 80; i++) {
  1004d3:	50                   	push   %eax
  1004d4:	c7 45 fc 00 00 00 00 	movl   $0x0,-0x4(%ebp)
  1004db:	81 7d fc a0 0f 00 00 	cmpl   $0xfa0,-0x4(%ebp)
  1004e2:	0f 8d 1d 00 00 00    	jge    100505 <clrscr+0x35>
        video[i] = 0;
  1004e8:	8b 45 fc             	mov    -0x4(%ebp),%eax
  1004eb:	8b 0d 00 51 10 00    	mov    0x105100,%ecx
  1004f1:	c6 04 01 00          	movb   $0x0,(%ecx,%eax,1)
    kputs(p);
}

void clrscr(void) {
    int i;
    for (i = 0; i < 2 * 25 * 80; i++) {
  1004f5:	8b 45 fc             	mov    -0x4(%ebp),%eax
  1004f8:	05 01 00 00 00       	add    $0x1,%eax
  1004fd:	89 45 fc             	mov    %eax,-0x4(%ebp)
  100500:	e9 d6 ff ff ff       	jmp    1004db <clrscr+0xb>
        video[i] = 0;
    }

    color = 0x07;
  100505:	c6 05 04 51 10 00 07 	movb   $0x7,0x105104

    x = y = 0;
  10050c:	c7 05 14 80 10 00 00 	movl   $0x0,0x108014
  100513:	00 00 00 
  100516:	c7 05 18 80 10 00 00 	movl   $0x0,0x108018
  10051d:	00 00 00 
}
  100520:	83 c4 04             	add    $0x4,%esp
  100523:	5d                   	pop    %ebp
  100524:	c3                   	ret    
  100525:	66 66 2e 0f 1f 84 00 	data32 nopw %cs:0x0(%eax,%eax,1)
  10052c:	00 00 00 00 

00100530 <setclr>:

void setclr(char clr) {
  100530:	55                   	push   %ebp
  100531:	89 e5                	mov    %esp,%ebp
  100533:	50                   	push   %eax
  100534:	8a 45 08             	mov    0x8(%ebp),%al
  100537:	88 45 ff             	mov    %al,-0x1(%ebp)
    color = clr;
  10053a:	8a 45 ff             	mov    -0x1(%ebp),%al
  10053d:	a2 04 51 10 00       	mov    %al,0x105104
}
  100542:	83 c4 04             	add    $0x4,%esp
  100545:	5d                   	pop    %ebp
  100546:	c3                   	ret    
  100547:	66 0f 1f 84 00 00 00 	nopw   0x0(%eax,%eax,1)
  10054e:	00 00 

00100550 <kprintf>:

int kprintf(const char* fmt, ...) {
  100550:	55                   	push   %ebp
  100551:	89 e5                	mov    %esp,%ebp
  100553:	83 ec 58             	sub    $0x58,%esp
  100556:	8b 45 08             	mov    0x8(%ebp),%eax
  100559:	8d 4d f8             	lea    -0x8(%ebp),%ecx
  10055c:	89 45 fc             	mov    %eax,-0x4(%ebp)
  10055f:	8d 45 0c             	lea    0xc(%ebp),%eax
    va_list ap;
    const char* s;
    unsigned long n;
    char c;

    va_start(ap, fmt);
  100562:	89 01                	mov    %eax,(%ecx)
    kprintf_res = 0;
  100564:	c7 05 1c 80 10 00 00 	movl   $0x0,0x10801c
  10056b:	00 00 00 
    while (*fmt) {
  10056e:	8b 45 fc             	mov    -0x4(%ebp),%eax
  100571:	80 38 00             	cmpb   $0x0,(%eax)
  100574:	0f 84 dd 01 00 00    	je     100757 <kprintf+0x207>
        if (*fmt == '%') {
  10057a:	8b 45 fc             	mov    -0x4(%ebp),%eax
  10057d:	0f be 00             	movsbl (%eax),%eax
  100580:	3d 25 00 00 00       	cmp    $0x25,%eax
  100585:	0f 85 ae 01 00 00    	jne    100739 <kprintf+0x1e9>
            fmt++;
  10058b:	8b 45 fc             	mov    -0x4(%ebp),%eax
  10058e:	89 c1                	mov    %eax,%ecx
  100590:	41                   	inc    %ecx
  100591:	89 4d fc             	mov    %ecx,-0x4(%ebp)
            switch (*fmt) {
  100594:	0f be 40 01          	movsbl 0x1(%eax),%eax
  100598:	89 c1                	mov    %eax,%ecx
  10059a:	83 e9 24             	sub    $0x24,%ecx
  10059d:	89 45 e8             	mov    %eax,-0x18(%ebp)
  1005a0:	89 4d e4             	mov    %ecx,-0x1c(%ebp)
  1005a3:	0f 8f 15 00 00 00    	jg     1005be <kprintf+0x6e>
  1005a9:	e9 00 00 00 00       	jmp    1005ae <kprintf+0x5e>
  1005ae:	8b 45 e8             	mov    -0x18(%ebp),%eax
  1005b1:	85 c0                	test   %eax,%eax
  1005b3:	0f 84 54 01 00 00    	je     10070d <kprintf+0x1bd>
  1005b9:	e9 54 01 00 00       	jmp    100712 <kprintf+0x1c2>
  1005be:	8b 45 e8             	mov    -0x18(%ebp),%eax
  1005c1:	83 e8 62             	sub    $0x62,%eax
  1005c4:	89 45 e0             	mov    %eax,-0x20(%ebp)
  1005c7:	0f 8f 19 00 00 00    	jg     1005e6 <kprintf+0x96>
  1005cd:	e9 00 00 00 00       	jmp    1005d2 <kprintf+0x82>
  1005d2:	8b 45 e8             	mov    -0x18(%ebp),%eax
  1005d5:	83 e8 25             	sub    $0x25,%eax
  1005d8:	89 45 dc             	mov    %eax,-0x24(%ebp)
  1005db:	0f 84 13 01 00 00    	je     1006f4 <kprintf+0x1a4>
  1005e1:	e9 2c 01 00 00       	jmp    100712 <kprintf+0x1c2>
  1005e6:	8b 45 e8             	mov    -0x18(%ebp),%eax
  1005e9:	83 e8 6f             	sub    $0x6f,%eax
  1005ec:	89 45 d8             	mov    %eax,-0x28(%ebp)
  1005ef:	0f 8f 2d 00 00 00    	jg     100622 <kprintf+0xd2>
  1005f5:	e9 00 00 00 00       	jmp    1005fa <kprintf+0xaa>
  1005fa:	8b 45 e8             	mov    -0x18(%ebp),%eax
  1005fd:	83 e8 63             	sub    $0x63,%eax
  100600:	89 45 d4             	mov    %eax,-0x2c(%ebp)
  100603:	0f 84 c5 00 00 00    	je     1006ce <kprintf+0x17e>
  100609:	e9 00 00 00 00       	jmp    10060e <kprintf+0xbe>
  10060e:	8b 45 e8             	mov    -0x18(%ebp),%eax
  100611:	83 e8 64             	sub    $0x64,%eax
  100614:	89 45 d0             	mov    %eax,-0x30(%ebp)
  100617:	0f 84 4b 00 00 00    	je     100668 <kprintf+0x118>
  10061d:	e9 f0 00 00 00       	jmp    100712 <kprintf+0x1c2>
  100622:	8b 45 e8             	mov    -0x18(%ebp),%eax
  100625:	83 c0 90             	add    $0xffffff90,%eax
  100628:	89 c1                	mov    %eax,%ecx
  10062a:	83 e9 08             	sub    $0x8,%ecx
  10062d:	89 45 cc             	mov    %eax,-0x34(%ebp)
  100630:	89 4d c8             	mov    %ecx,-0x38(%ebp)
  100633:	0f 87 d9 00 00 00    	ja     100712 <kprintf+0x1c2>
  100639:	8b 45 cc             	mov    -0x34(%ebp),%eax
  10063c:	8b 0c 85 00 60 10 00 	mov    0x106000(,%eax,4),%ecx
  100643:	ff e1                	jmp    *%ecx
            case 's':
                s = va_arg(ap, char*);
  100645:	8b 45 f8             	mov    -0x8(%ebp),%eax
  100648:	89 c1                	mov    %eax,%ecx
  10064a:	81 c1 04 00 00 00    	add    $0x4,%ecx
  100650:	89 4d f8             	mov    %ecx,-0x8(%ebp)
  100653:	8b 00                	mov    (%eax),%eax
  100655:	89 45 f4             	mov    %eax,-0xc(%ebp)
                kputs(s);
  100658:	8b 45 f4             	mov    -0xc(%ebp),%eax
  10065b:	89 04 24             	mov    %eax,(%esp)
  10065e:	e8 0d 01 00 00       	call   100770 <kputs>
                break;
  100663:	e9 cc 00 00 00       	jmp    100734 <kprintf+0x1e4>
  100668:	b8 0a 00 00 00       	mov    $0xa,%eax
            case 'd':
            case 'u':
                n = va_arg(ap, unsigned long int);
  10066d:	8b 4d f8             	mov    -0x8(%ebp),%ecx
  100670:	89 ca                	mov    %ecx,%edx
  100672:	81 c2 04 00 00 00    	add    $0x4,%edx
  100678:	89 55 f8             	mov    %edx,-0x8(%ebp)
  10067b:	8b 09                	mov    (%ecx),%ecx
  10067d:	89 4d f0             	mov    %ecx,-0x10(%ebp)
                kputn(n, 10);
  100680:	8b 4d f0             	mov    -0x10(%ebp),%ecx
  100683:	89 0c 24             	mov    %ecx,(%esp)
  100686:	c7 44 24 04 0a 00 00 	movl   $0xa,0x4(%esp)
  10068d:	00 
  10068e:	89 45 c4             	mov    %eax,-0x3c(%ebp)
  100691:	e8 1a 01 00 00       	call   1007b0 <kputn>
                break;
  100696:	e9 99 00 00 00       	jmp    100734 <kprintf+0x1e4>
  10069b:	b8 10 00 00 00       	mov    $0x10,%eax
            case 'x':
            case 'p':
                n = va_arg(ap, unsigned long int);
  1006a0:	8b 4d f8             	mov    -0x8(%ebp),%ecx
  1006a3:	89 ca                	mov    %ecx,%edx
  1006a5:	81 c2 04 00 00 00    	add    $0x4,%edx
  1006ab:	89 55 f8             	mov    %edx,-0x8(%ebp)
  1006ae:	8b 09                	mov    (%ecx),%ecx
  1006b0:	89 4d f0             	mov    %ecx,-0x10(%ebp)
                kputn(n, 16);
  1006b3:	8b 4d f0             	mov    -0x10(%ebp),%ecx
  1006b6:	89 0c 24             	mov    %ecx,(%esp)
  1006b9:	c7 44 24 04 10 00 00 	movl   $0x10,0x4(%esp)
  1006c0:	00 
  1006c1:	89 45 c0             	mov    %eax,-0x40(%ebp)
  1006c4:	e8 e7 00 00 00       	call   1007b0 <kputn>
                break;
  1006c9:	e9 66 00 00 00       	jmp    100734 <kprintf+0x1e4>
            case 'c':
                c = va_arg(ap, int);
  1006ce:	8b 45 f8             	mov    -0x8(%ebp),%eax
  1006d1:	89 c1                	mov    %eax,%ecx
  1006d3:	81 c1 04 00 00 00    	add    $0x4,%ecx
  1006d9:	89 4d f8             	mov    %ecx,-0x8(%ebp)
  1006dc:	8b 00                	mov    (%eax),%eax
  1006de:	88 c2                	mov    %al,%dl
  1006e0:	88 55 ef             	mov    %dl,-0x11(%ebp)
                kputc(c);
  1006e3:	0f be 45 ef          	movsbl -0x11(%ebp),%eax
  1006e7:	89 04 24             	mov    %eax,(%esp)
  1006ea:	e8 61 01 00 00       	call   100850 <kputc>
                break;
  1006ef:	e9 40 00 00 00       	jmp    100734 <kprintf+0x1e4>
  1006f4:	b8 25 00 00 00       	mov    $0x25,%eax
            case '%':
                kputc('%');
  1006f9:	c7 04 24 25 00 00 00 	movl   $0x25,(%esp)
  100700:	89 45 bc             	mov    %eax,-0x44(%ebp)
  100703:	e8 48 01 00 00       	call   100850 <kputc>
                break;
  100708:	e9 27 00 00 00       	jmp    100734 <kprintf+0x1e4>
            case '\0':
                goto out;
  10070d:	e9 4a 00 00 00       	jmp    10075c <kprintf+0x20c>
  100712:	b8 25 00 00 00       	mov    $0x25,%eax
            default:
                kputc('%');
  100717:	c7 04 24 25 00 00 00 	movl   $0x25,(%esp)
  10071e:	89 45 b8             	mov    %eax,-0x48(%ebp)
  100721:	e8 2a 01 00 00       	call   100850 <kputc>
                kputc(*fmt);
  100726:	8b 45 fc             	mov    -0x4(%ebp),%eax
  100729:	0f be 00             	movsbl (%eax),%eax
  10072c:	89 04 24             	mov    %eax,(%esp)
  10072f:	e8 1c 01 00 00       	call   100850 <kputc>
                break;
            }
        } else {
  100734:	e9 0e 00 00 00       	jmp    100747 <kprintf+0x1f7>
            kputc(*fmt);
  100739:	8b 45 fc             	mov    -0x4(%ebp),%eax
  10073c:	0f be 00             	movsbl (%eax),%eax
  10073f:	89 04 24             	mov    %eax,(%esp)
  100742:	e8 09 01 00 00       	call   100850 <kputc>
        }

        fmt++;
  100747:	8b 45 fc             	mov    -0x4(%ebp),%eax
  10074a:	05 01 00 00 00       	add    $0x1,%eax
  10074f:	89 45 fc             	mov    %eax,-0x4(%ebp)
    }
  100752:	e9 17 fe ff ff       	jmp    10056e <kprintf+0x1e>
  100757:	e9 00 00 00 00       	jmp    10075c <kprintf+0x20c>

    out:
    va_end(ap);

    return kprintf_res;
  10075c:	a1 1c 80 10 00       	mov    0x10801c,%eax
  100761:	83 c4 58             	add    $0x58,%esp
  100764:	5d                   	pop    %ebp
  100765:	c3                   	ret    
  100766:	66 2e 0f 1f 84 00 00 	nopw   %cs:0x0(%eax,%eax,1)
  10076d:	00 00 00 

00100770 <kputs>:

    x++;
    kprintf_res++;
}

static void kputs(const char* s) {
  100770:	55                   	push   %ebp
  100771:	89 e5                	mov    %esp,%ebp
  100773:	83 ec 08             	sub    $0x8,%esp
  100776:	8b 45 08             	mov    0x8(%ebp),%eax
  100779:	89 45 fc             	mov    %eax,-0x4(%ebp)
    while (*s) {
  10077c:	8b 45 fc             	mov    -0x4(%ebp),%eax
  10077f:	80 38 00             	cmpb   $0x0,(%eax)
  100782:	0f 84 1e 00 00 00    	je     1007a6 <kputs+0x36>
        kputc(*s++);
  100788:	8b 45 fc             	mov    -0x4(%ebp),%eax
  10078b:	89 c1                	mov    %eax,%ecx
  10078d:	81 c1 01 00 00 00    	add    $0x1,%ecx
  100793:	89 4d fc             	mov    %ecx,-0x4(%ebp)
  100796:	0f be 00             	movsbl (%eax),%eax
  100799:	89 04 24             	mov    %eax,(%esp)
  10079c:	e8 af 00 00 00       	call   100850 <kputc>
    }
  1007a1:	e9 d6 ff ff ff       	jmp    10077c <kputs+0xc>
}
  1007a6:	83 c4 08             	add    $0x8,%esp
  1007a9:	5d                   	pop    %ebp
  1007aa:	c3                   	ret    
  1007ab:	0f 1f 44 00 00       	nopl   0x0(%eax,%eax,1)

001007b0 <kputn>:

static void kputn(unsigned long x, int base) {
  1007b0:	55                   	push   %ebp
  1007b1:	89 e5                	mov    %esp,%ebp
  1007b3:	56                   	push   %esi
  1007b4:	83 ec 64             	sub    $0x64,%esp
  1007b7:	8b 45 0c             	mov    0xc(%ebp),%eax
  1007ba:	8b 4d 08             	mov    0x8(%ebp),%ecx
  1007bd:	8d 15 d8 61 10 00    	lea    0x1061d8,%edx
  1007c3:	89 4d f8             	mov    %ecx,-0x8(%ebp)
  1007c6:	89 45 f4             	mov    %eax,-0xc(%ebp)
    char buf[65];
    const char* digits = "0123456789abcdefghijklmnopqrstuvwxyz";
  1007c9:	89 55 ac             	mov    %edx,-0x54(%ebp)
    char* p;

    if (base > 36) {
  1007cc:	81 7d f4 24 00 00 00 	cmpl   $0x24,-0xc(%ebp)
  1007d3:	0f 8e 05 00 00 00    	jle    1007de <kputn+0x2e>
        return;
  1007d9:	e9 5d 00 00 00       	jmp    10083b <kputn+0x8b>
  1007de:	8d 45 b3             	lea    -0x4d(%ebp),%eax
    }

    p = buf + 64;
  1007e1:	05 40 00 00 00       	add    $0x40,%eax
  1007e6:	89 45 a8             	mov    %eax,-0x58(%ebp)
    *p = '\0';
  1007e9:	8b 45 a8             	mov    -0x58(%ebp),%eax
  1007ec:	c6 00 00             	movb   $0x0,(%eax)
    do {
        *--p = digits[x % base];
  1007ef:	8b 45 f8             	mov    -0x8(%ebp),%eax
  1007f2:	31 d2                	xor    %edx,%edx
  1007f4:	f7 75 f4             	divl   -0xc(%ebp)
  1007f7:	8b 45 ac             	mov    -0x54(%ebp),%eax
  1007fa:	8a 0c 10             	mov    (%eax,%edx,1),%cl
  1007fd:	8b 45 a8             	mov    -0x58(%ebp),%eax
  100800:	89 c2                	mov    %eax,%edx
  100802:	81 c2 ff ff ff ff    	add    $0xffffffff,%edx
  100808:	89 55 a8             	mov    %edx,-0x58(%ebp)
  10080b:	88 48 ff             	mov    %cl,-0x1(%eax)
        x /= base;
  10080e:	8b 45 f4             	mov    -0xc(%ebp),%eax
  100811:	8b 55 f8             	mov    -0x8(%ebp),%edx
  100814:	89 45 a4             	mov    %eax,-0x5c(%ebp)
  100817:	89 d0                	mov    %edx,%eax
  100819:	31 d2                	xor    %edx,%edx
  10081b:	8b 75 a4             	mov    -0x5c(%ebp),%esi
  10081e:	f7 f6                	div    %esi
  100820:	89 45 f8             	mov    %eax,-0x8(%ebp)
    } while (x);
  100823:	81 7d f8 00 00 00 00 	cmpl   $0x0,-0x8(%ebp)
  10082a:	0f 85 bf ff ff ff    	jne    1007ef <kputn+0x3f>
    kputs(p);
  100830:	8b 45 a8             	mov    -0x58(%ebp),%eax
  100833:	89 04 24             	mov    %eax,(%esp)
  100836:	e8 35 ff ff ff       	call   100770 <kputs>
}
  10083b:	83 c4 64             	add    $0x64,%esp
  10083e:	5e                   	pop    %esi
  10083f:	5d                   	pop    %ebp
  100840:	c3                   	ret    
  100841:	66 66 66 66 66 66 2e 	data32 data32 data32 data32 data32 nopw %cs:0x0(%eax,%eax,1)
  100848:	0f 1f 84 00 00 00 00 
  10084f:	00 

00100850 <kputc>:
static int kprintf_res = 0;
static char color = 0x07;

static char* video = (char*) 0xb8000;

static void kputc(char c) {
  100850:	55                   	push   %ebp
  100851:	89 e5                	mov    %esp,%ebp
  100853:	83 ec 08             	sub    $0x8,%esp
  100856:	8a 45 08             	mov    0x8(%ebp),%al
  100859:	88 45 ff             	mov    %al,-0x1(%ebp)
    if ((c == '\n') || (x > 79)) {
  10085c:	0f be 4d ff          	movsbl -0x1(%ebp),%ecx
  100860:	81 f9 0a 00 00 00    	cmp    $0xa,%ecx
  100866:	0f 84 10 00 00 00    	je     10087c <kputc+0x2c>
  10086c:	81 3d 18 80 10 00 4f 	cmpl   $0x4f,0x108018
  100873:	00 00 00 
  100876:	0f 8e 19 00 00 00    	jle    100895 <kputc+0x45>
        x = 0;
  10087c:	c7 05 18 80 10 00 00 	movl   $0x0,0x108018
  100883:	00 00 00 
        y++;
  100886:	a1 14 80 10 00       	mov    0x108014,%eax
  10088b:	05 01 00 00 00       	add    $0x1,%eax
  100890:	a3 14 80 10 00       	mov    %eax,0x108014
    }

    if (c == '\n') {
  100895:	0f be 45 ff          	movsbl -0x1(%ebp),%eax
  100899:	3d 0a 00 00 00       	cmp    $0xa,%eax
  10089e:	0f 85 05 00 00 00    	jne    1008a9 <kputc+0x59>
        return;
  1008a4:	e9 f3 00 00 00       	jmp    10099c <kputc+0x14c>
    }

    if (y > 24) {
  1008a9:	81 3d 14 80 10 00 18 	cmpl   $0x18,0x108014
  1008b0:	00 00 00 
  1008b3:	0f 8e 7e 00 00 00    	jle    100937 <kputc+0xe7>
        int i;
        for (i = 0; i < 2 * 24 * 80; i++) {
  1008b9:	c7 45 f8 00 00 00 00 	movl   $0x0,-0x8(%ebp)
  1008c0:	81 7d f8 00 0f 00 00 	cmpl   $0xf00,-0x8(%ebp)
  1008c7:	0f 8d 2c 00 00 00    	jge    1008f9 <kputc+0xa9>
            video[i] = video[i + 160];
  1008cd:	8b 45 f8             	mov    -0x8(%ebp),%eax
  1008d0:	8b 0d 00 51 10 00    	mov    0x105100,%ecx
  1008d6:	8a 94 01 a0 00 00 00 	mov    0xa0(%ecx,%eax,1),%dl
  1008dd:	8b 45 f8             	mov    -0x8(%ebp),%eax
  1008e0:	8b 0d 00 51 10 00    	mov    0x105100,%ecx
  1008e6:	88 14 01             	mov    %dl,(%ecx,%eax,1)
        return;
    }

    if (y > 24) {
        int i;
        for (i = 0; i < 2 * 24 * 80; i++) {
  1008e9:	8b 45 f8             	mov    -0x8(%ebp),%eax
  1008ec:	05 01 00 00 00       	add    $0x1,%eax
  1008f1:	89 45 f8             	mov    %eax,-0x8(%ebp)
  1008f4:	e9 c7 ff ff ff       	jmp    1008c0 <kputc+0x70>
            video[i] = video[i + 160];
        }

        for (; i < 2 * 25 * 80; i++) {
  1008f9:	e9 00 00 00 00       	jmp    1008fe <kputc+0xae>
  1008fe:	81 7d f8 a0 0f 00 00 	cmpl   $0xfa0,-0x8(%ebp)
  100905:	0f 8d 1d 00 00 00    	jge    100928 <kputc+0xd8>
            video[i] = 0;
  10090b:	8b 45 f8             	mov    -0x8(%ebp),%eax
  10090e:	8b 0d 00 51 10 00    	mov    0x105100,%ecx
  100914:	c6 04 01 00          	movb   $0x0,(%ecx,%eax,1)
        int i;
        for (i = 0; i < 2 * 24 * 80; i++) {
            video[i] = video[i + 160];
        }

        for (; i < 2 * 25 * 80; i++) {
  100918:	8b 45 f8             	mov    -0x8(%ebp),%eax
  10091b:	05 01 00 00 00       	add    $0x1,%eax
  100920:	89 45 f8             	mov    %eax,-0x8(%ebp)
  100923:	e9 d6 ff ff ff       	jmp    1008fe <kputc+0xae>
            video[i] = 0;
        }
        y--;
  100928:	a1 14 80 10 00       	mov    0x108014,%eax
  10092d:	05 ff ff ff ff       	add    $0xffffffff,%eax
  100932:	a3 14 80 10 00       	mov    %eax,0x108014
    }

    video[2 * (y * 80 + x)] = c;
  100937:	8a 45 ff             	mov    -0x1(%ebp),%al
  10093a:	69 0d 14 80 10 00 50 	imul   $0x50,0x108014,%ecx
  100941:	00 00 00 
  100944:	03 0d 18 80 10 00    	add    0x108018,%ecx
  10094a:	c1 e1 01             	shl    $0x1,%ecx
  10094d:	8b 15 00 51 10 00    	mov    0x105100,%edx
  100953:	88 04 0a             	mov    %al,(%edx,%ecx,1)
    video[2 * (y * 80 + x) + 1] = color;
  100956:	a0 04 51 10 00       	mov    0x105104,%al
  10095b:	69 0d 14 80 10 00 50 	imul   $0x50,0x108014,%ecx
  100962:	00 00 00 
  100965:	03 0d 18 80 10 00    	add    0x108018,%ecx
  10096b:	c1 e1 01             	shl    $0x1,%ecx
  10096e:	8b 15 00 51 10 00    	mov    0x105100,%edx
  100974:	88 44 0a 01          	mov    %al,0x1(%edx,%ecx,1)

    x++;
  100978:	8b 0d 18 80 10 00    	mov    0x108018,%ecx
  10097e:	81 c1 01 00 00 00    	add    $0x1,%ecx
  100984:	89 0d 18 80 10 00    	mov    %ecx,0x108018
    kprintf_res++;
  10098a:	8b 0d 1c 80 10 00    	mov    0x10801c,%ecx
  100990:	81 c1 01 00 00 00    	add    $0x1,%ecx
  100996:	89 0d 1c 80 10 00    	mov    %ecx,0x10801c
}
  10099c:	83 c4 08             	add    $0x8,%esp
  10099f:	5d                   	pop    %ebp
  1009a0:	c3                   	ret    
  1009a1:	66 90                	xchg   %ax,%ax
  1009a3:	66 90                	xchg   %ax,%ax
  1009a5:	66 90                	xchg   %ax,%ax
  1009a7:	66 90                	xchg   %ax,%ax
  1009a9:	66 90                	xchg   %ax,%ax
  1009ab:	66 90                	xchg   %ax,%ax
  1009ad:	66 90                	xchg   %ax,%ax
  1009af:	90                   	nop

001009b0 <load_gdt>:

#define GDT_ENTRIES 6

uint64_t gdt[GDT_ENTRIES];

void load_gdt() {
  1009b0:	55                   	push   %ebp
  1009b1:	89 e5                	mov    %esp,%ebp
	struct {
  1009b3:	83 ec 08             	sub    $0x8,%esp
  1009b6:	a1 24 60 10 00       	mov    0x106024,%eax
  1009bb:	89 45 f8             	mov    %eax,-0x8(%ebp)
  1009be:	66 8b 0d 28 60 10 00 	mov    0x106028,%cx
  1009c5:	66 89 4d fc          	mov    %cx,-0x4(%ebp)
		uint16_t limit;
		void* pointer;
	}__attribute__((packed)) gdtp = { .limit = GDT_ENTRIES * 8 - 1, .pointer =
			gdt, };

	asm volatile("lgdt %0" : : "m" (gdtp));
  1009c9:	0f 01 55 f8          	lgdtl  -0x8(%ebp)

	asm ("mov $0x10, %ax");
  1009cd:	66 b8 10 00          	mov    $0x10,%ax
	asm ("mov %ax, %ds");
  1009d1:	66 8e d8             	mov    %ax,%ds
	asm ("mov %ax, %es");
  1009d4:	66 8e c0             	mov    %ax,%es
	asm ("mov %ax, %fs");
  1009d7:	66 8e e0             	mov    %ax,%fs
	asm ("mov %ax, %gs");
  1009da:	66 8e e8             	mov    %ax,%gs
	asm ("mov %ax, %ss");
  1009dd:	66 8e d0             	mov    %ax,%ss
	//asm ("ljmp $0x8, $.1");
	//asm (".1:");
}
  1009e0:	83 c4 08             	add    $0x8,%esp
  1009e3:	5d                   	pop    %ebp
  1009e4:	c3                   	ret    
  1009e5:	66 66 2e 0f 1f 84 00 	data32 nopw %cs:0x0(%eax,%eax,1)
  1009ec:	00 00 00 00 

001009f0 <set_gdt_entry>:

void set_gdt_entry(int i, unsigned int base, unsigned int limit, int flags) {
  1009f0:	55                   	push   %ebp
  1009f1:	89 e5                	mov    %esp,%ebp
  1009f3:	56                   	push   %esi
  1009f4:	83 ec 10             	sub    $0x10,%esp
  1009f7:	8b 45 14             	mov    0x14(%ebp),%eax
  1009fa:	8b 4d 10             	mov    0x10(%ebp),%ecx
  1009fd:	8b 55 0c             	mov    0xc(%ebp),%edx
  100a00:	8b 75 08             	mov    0x8(%ebp),%esi
  100a03:	89 75 f8             	mov    %esi,-0x8(%ebp)
  100a06:	89 55 f4             	mov    %edx,-0xc(%ebp)
  100a09:	89 4d f0             	mov    %ecx,-0x10(%ebp)
  100a0c:	89 45 ec             	mov    %eax,-0x14(%ebp)
	gdt[i] = limit & 0xffffLL;
  100a0f:	0f b7 45 f0          	movzwl -0x10(%ebp),%eax
  100a13:	8b 4d f8             	mov    -0x8(%ebp),%ecx
  100a16:	89 04 cd 58 c4 10 00 	mov    %eax,0x10c458(,%ecx,8)
  100a1d:	c7 04 cd 5c c4 10 00 	movl   $0x0,0x10c45c(,%ecx,8)
  100a24:	00 00 00 00 
	gdt[i] |= (base & 0xffffffLL) << 16;
  100a28:	8b 45 f4             	mov    -0xc(%ebp),%eax
  100a2b:	25 ff ff ff 00       	and    $0xffffff,%eax
  100a30:	89 c1                	mov    %eax,%ecx
  100a32:	c1 e1 10             	shl    $0x10,%ecx
  100a35:	c1 e8 10             	shr    $0x10,%eax
  100a38:	8b 55 f8             	mov    -0x8(%ebp),%edx
  100a3b:	8b 34 d5 5c c4 10 00 	mov    0x10c45c(,%edx,8),%esi
  100a42:	09 f0                	or     %esi,%eax
  100a44:	8b 34 d5 58 c4 10 00 	mov    0x10c458(,%edx,8),%esi
  100a4b:	09 ce                	or     %ecx,%esi
  100a4d:	89 04 d5 5c c4 10 00 	mov    %eax,0x10c45c(,%edx,8)
  100a54:	89 34 d5 58 c4 10 00 	mov    %esi,0x10c458(,%edx,8)
	gdt[i] |= (flags & 0xffLL) << 40;
  100a5b:	0f b6 45 ec          	movzbl -0x14(%ebp),%eax
  100a5f:	c1 e0 08             	shl    $0x8,%eax
  100a62:	8b 4d f8             	mov    -0x8(%ebp),%ecx
  100a65:	8b 14 cd 58 c4 10 00 	mov    0x10c458(,%ecx,8),%edx
  100a6c:	8b 34 cd 5c c4 10 00 	mov    0x10c45c(,%ecx,8),%esi
  100a73:	09 c6                	or     %eax,%esi
  100a75:	89 14 cd 58 c4 10 00 	mov    %edx,0x10c458(,%ecx,8)
  100a7c:	89 34 cd 5c c4 10 00 	mov    %esi,0x10c45c(,%ecx,8)
	gdt[i] |= ((limit >> 16) & 0xfLL) << 48;
  100a83:	0f b7 45 f2          	movzwl -0xe(%ebp),%eax
  100a87:	83 e0 0f             	and    $0xf,%eax
  100a8a:	c1 e0 10             	shl    $0x10,%eax
  100a8d:	8b 4d f8             	mov    -0x8(%ebp),%ecx
  100a90:	8b 14 cd 58 c4 10 00 	mov    0x10c458(,%ecx,8),%edx
  100a97:	8b 34 cd 5c c4 10 00 	mov    0x10c45c(,%ecx,8),%esi
  100a9e:	09 c6                	or     %eax,%esi
  100aa0:	89 14 cd 58 c4 10 00 	mov    %edx,0x10c458(,%ecx,8)
  100aa7:	89 34 cd 5c c4 10 00 	mov    %esi,0x10c45c(,%ecx,8)
	gdt[i] |= ((flags >> 8) & 0xffLL) << 52;
  100aae:	8b 45 ec             	mov    -0x14(%ebp),%eax
  100ab1:	c1 e0 0c             	shl    $0xc,%eax
  100ab4:	25 00 00 f0 0f       	and    $0xff00000,%eax
  100ab9:	8b 4d f8             	mov    -0x8(%ebp),%ecx
  100abc:	8b 14 cd 58 c4 10 00 	mov    0x10c458(,%ecx,8),%edx
  100ac3:	8b 34 cd 5c c4 10 00 	mov    0x10c45c(,%ecx,8),%esi
  100aca:	09 c6                	or     %eax,%esi
  100acc:	89 14 cd 58 c4 10 00 	mov    %edx,0x10c458(,%ecx,8)
  100ad3:	89 34 cd 5c c4 10 00 	mov    %esi,0x10c45c(,%ecx,8)
	gdt[i] |= ((base >> 24) & 0xffLL) << 56;
  100ada:	0f b6 45 f7          	movzbl -0x9(%ebp),%eax
  100ade:	c1 e0 18             	shl    $0x18,%eax
  100ae1:	8b 4d f8             	mov    -0x8(%ebp),%ecx
  100ae4:	8b 14 cd 58 c4 10 00 	mov    0x10c458(,%ecx,8),%edx
  100aeb:	8b 34 cd 5c c4 10 00 	mov    0x10c45c(,%ecx,8),%esi
  100af2:	09 c6                	or     %eax,%esi
  100af4:	89 14 cd 58 c4 10 00 	mov    %edx,0x10c458(,%ecx,8)
  100afb:	89 34 cd 5c c4 10 00 	mov    %esi,0x10c45c(,%ecx,8)
}
  100b02:	83 c4 10             	add    $0x10,%esp
  100b05:	5e                   	pop    %esi
  100b06:	5d                   	pop    %ebp
  100b07:	c3                   	ret    
  100b08:	0f 1f 84 00 00 00 00 	nopl   0x0(%eax,%eax,1)
  100b0f:	00 

00100b10 <init_gdt>:

void init_gdt(void) {
  100b10:	55                   	push   %ebp
  100b11:	89 e5                	mov    %esp,%ebp
  100b13:	56                   	push   %esi
  100b14:	83 ec 54             	sub    $0x54,%esp
  100b17:	b8 00 00 00 00       	mov    $0x0,%eax
	set_gdt_entry(0, 0, 0, 0);
  100b1c:	c7 04 24 00 00 00 00 	movl   $0x0,(%esp)
  100b23:	c7 44 24 04 00 00 00 	movl   $0x0,0x4(%esp)
  100b2a:	00 
  100b2b:	c7 44 24 08 00 00 00 	movl   $0x0,0x8(%esp)
  100b32:	00 
  100b33:	c7 44 24 0c 00 00 00 	movl   $0x0,0xc(%esp)
  100b3a:	00 
  100b3b:	89 45 f8             	mov    %eax,-0x8(%ebp)
  100b3e:	e8 ad fe ff ff       	call   1009f0 <set_gdt_entry>
  100b43:	b8 01 00 00 00       	mov    $0x1,%eax
  100b48:	b9 00 00 00 00       	mov    $0x0,%ecx
  100b4d:	ba ff ff 0f 00       	mov    $0xfffff,%edx
  100b52:	be 9a 0c 00 00       	mov    $0xc9a,%esi
	set_gdt_entry(1, 0, 0xfffff, GDT_FLAG_SEGMENT | GDT_FLAG_32_BIT |
  100b57:	c7 04 24 01 00 00 00 	movl   $0x1,(%esp)
  100b5e:	c7 44 24 04 00 00 00 	movl   $0x0,0x4(%esp)
  100b65:	00 
  100b66:	c7 44 24 08 ff ff 0f 	movl   $0xfffff,0x8(%esp)
  100b6d:	00 
  100b6e:	c7 44 24 0c 9a 0c 00 	movl   $0xc9a,0xc(%esp)
  100b75:	00 
  100b76:	89 45 f4             	mov    %eax,-0xc(%ebp)
  100b79:	89 4d f0             	mov    %ecx,-0x10(%ebp)
  100b7c:	89 55 ec             	mov    %edx,-0x14(%ebp)
  100b7f:	89 75 e8             	mov    %esi,-0x18(%ebp)
  100b82:	e8 69 fe ff ff       	call   1009f0 <set_gdt_entry>
  100b87:	b8 02 00 00 00       	mov    $0x2,%eax
  100b8c:	b9 00 00 00 00       	mov    $0x0,%ecx
  100b91:	ba ff ff 0f 00       	mov    $0xfffff,%edx
  100b96:	be 92 0c 00 00       	mov    $0xc92,%esi
	GDT_FLAG_CODESEG | GDT_FLAG_4K_GRAN | GDT_FLAG_PRESENT);
	set_gdt_entry(2, 0, 0xfffff, GDT_FLAG_SEGMENT | GDT_FLAG_32_BIT |
  100b9b:	c7 04 24 02 00 00 00 	movl   $0x2,(%esp)
  100ba2:	c7 44 24 04 00 00 00 	movl   $0x0,0x4(%esp)
  100ba9:	00 
  100baa:	c7 44 24 08 ff ff 0f 	movl   $0xfffff,0x8(%esp)
  100bb1:	00 
  100bb2:	c7 44 24 0c 92 0c 00 	movl   $0xc92,0xc(%esp)
  100bb9:	00 
  100bba:	89 45 e4             	mov    %eax,-0x1c(%ebp)
  100bbd:	89 4d e0             	mov    %ecx,-0x20(%ebp)
  100bc0:	89 55 dc             	mov    %edx,-0x24(%ebp)
  100bc3:	89 75 d8             	mov    %esi,-0x28(%ebp)
  100bc6:	e8 25 fe ff ff       	call   1009f0 <set_gdt_entry>
  100bcb:	b8 03 00 00 00       	mov    $0x3,%eax
  100bd0:	b9 00 00 00 00       	mov    $0x0,%ecx
  100bd5:	ba ff ff 0f 00       	mov    $0xfffff,%edx
  100bda:	be fa 0c 00 00       	mov    $0xcfa,%esi
	GDT_FLAG_DATASEG | GDT_FLAG_4K_GRAN | GDT_FLAG_PRESENT);
	set_gdt_entry(3, 0, 0xfffff, GDT_FLAG_SEGMENT | GDT_FLAG_32_BIT |
  100bdf:	c7 04 24 03 00 00 00 	movl   $0x3,(%esp)
  100be6:	c7 44 24 04 00 00 00 	movl   $0x0,0x4(%esp)
  100bed:	00 
  100bee:	c7 44 24 08 ff ff 0f 	movl   $0xfffff,0x8(%esp)
  100bf5:	00 
  100bf6:	c7 44 24 0c fa 0c 00 	movl   $0xcfa,0xc(%esp)
  100bfd:	00 
  100bfe:	89 45 d4             	mov    %eax,-0x2c(%ebp)
  100c01:	89 4d d0             	mov    %ecx,-0x30(%ebp)
  100c04:	89 55 cc             	mov    %edx,-0x34(%ebp)
  100c07:	89 75 c8             	mov    %esi,-0x38(%ebp)
  100c0a:	e8 e1 fd ff ff       	call   1009f0 <set_gdt_entry>
  100c0f:	b8 04 00 00 00       	mov    $0x4,%eax
  100c14:	b9 00 00 00 00       	mov    $0x0,%ecx
  100c19:	ba ff ff 0f 00       	mov    $0xfffff,%edx
  100c1e:	be f2 0c 00 00       	mov    $0xcf2,%esi
	GDT_FLAG_CODESEG | GDT_FLAG_4K_GRAN | GDT_FLAG_PRESENT | GDT_FLAG_RING3);
	set_gdt_entry(4, 0, 0xfffff, GDT_FLAG_SEGMENT | GDT_FLAG_32_BIT |
  100c23:	c7 04 24 04 00 00 00 	movl   $0x4,(%esp)
  100c2a:	c7 44 24 04 00 00 00 	movl   $0x0,0x4(%esp)
  100c31:	00 
  100c32:	c7 44 24 08 ff ff 0f 	movl   $0xfffff,0x8(%esp)
  100c39:	00 
  100c3a:	c7 44 24 0c f2 0c 00 	movl   $0xcf2,0xc(%esp)
  100c41:	00 
  100c42:	89 45 c4             	mov    %eax,-0x3c(%ebp)
  100c45:	89 4d c0             	mov    %ecx,-0x40(%ebp)
  100c48:	89 55 bc             	mov    %edx,-0x44(%ebp)
  100c4b:	89 75 b8             	mov    %esi,-0x48(%ebp)
  100c4e:	e8 9d fd ff ff       	call   1009f0 <set_gdt_entry>
	GDT_FLAG_DATASEG | GDT_FLAG_4K_GRAN | GDT_FLAG_PRESENT | GDT_FLAG_RING3);

	load_gdt();
  100c53:	e8 58 fd ff ff       	call   1009b0 <load_gdt>
}
  100c58:	83 c4 54             	add    $0x54,%esp
  100c5b:	5e                   	pop    %esi
  100c5c:	5d                   	pop    %ebp
  100c5d:	c3                   	ret    
  100c5e:	66 90                	xchg   %ax,%ax

00100c60 <idt_set_entry>:
extern void intr_stub_46(void);
extern void intr_stub_47(void);

extern void intr_stub_48(void);

void idt_set_entry(int i, void (*fn)(), uint16_t selector, uint8_t flags) {
  100c60:	55                   	push   %ebp
  100c61:	89 e5                	mov    %esp,%ebp
  100c63:	53                   	push   %ebx
  100c64:	57                   	push   %edi
  100c65:	56                   	push   %esi
  100c66:	83 ec 10             	sub    $0x10,%esp
  100c69:	0f b7 45 10          	movzwl 0x10(%ebp),%eax
  100c6d:	66 89 c1             	mov    %ax,%cx
  100c70:	8a 55 14             	mov    0x14(%ebp),%dl
  100c73:	8b 45 0c             	mov    0xc(%ebp),%eax
  100c76:	8b 75 08             	mov    0x8(%ebp),%esi
  100c79:	89 75 f0             	mov    %esi,-0x10(%ebp)
  100c7c:	89 45 ec             	mov    %eax,-0x14(%ebp)
  100c7f:	66 89 4d ea          	mov    %cx,-0x16(%ebp)
  100c83:	88 55 e9             	mov    %dl,-0x17(%ebp)
	unsigned long int handler = (unsigned long int) fn;
  100c86:	8b 45 ec             	mov    -0x14(%ebp),%eax
  100c89:	89 45 e4             	mov    %eax,-0x1c(%ebp)
	idt[i] = handler & 0xffffLL;
  100c8c:	0f b7 45 e4          	movzwl -0x1c(%ebp),%eax
  100c90:	8b 75 f0             	mov    -0x10(%ebp),%esi
  100c93:	89 04 f5 20 80 10 00 	mov    %eax,0x108020(,%esi,8)
  100c9a:	c7 04 f5 24 80 10 00 	movl   $0x0,0x108024(,%esi,8)
  100ca1:	00 00 00 00 
	idt[i] |= (selector & 0xffffLL) << 16;
  100ca5:	0f b7 45 ea          	movzwl -0x16(%ebp),%eax
  100ca9:	c1 e0 10             	shl    $0x10,%eax
  100cac:	8b 75 f0             	mov    -0x10(%ebp),%esi
  100caf:	8b 3c f5 24 80 10 00 	mov    0x108024(,%esi,8),%edi
  100cb6:	8b 1c f5 20 80 10 00 	mov    0x108020(,%esi,8),%ebx
  100cbd:	09 c3                	or     %eax,%ebx
  100cbf:	89 3c f5 24 80 10 00 	mov    %edi,0x108024(,%esi,8)
  100cc6:	89 1c f5 20 80 10 00 	mov    %ebx,0x108020(,%esi,8)
	idt[i] |= (flags & 0xffLL) << 40;
  100ccd:	0f b6 45 e9          	movzbl -0x17(%ebp),%eax
  100cd1:	c1 e0 08             	shl    $0x8,%eax
  100cd4:	8b 75 f0             	mov    -0x10(%ebp),%esi
  100cd7:	8b 3c f5 20 80 10 00 	mov    0x108020(,%esi,8),%edi
  100cde:	8b 1c f5 24 80 10 00 	mov    0x108024(,%esi,8),%ebx
  100ce5:	09 c3                	or     %eax,%ebx
  100ce7:	89 3c f5 20 80 10 00 	mov    %edi,0x108020(,%esi,8)
  100cee:	89 1c f5 24 80 10 00 	mov    %ebx,0x108024(,%esi,8)
	idt[i] |= ((handler >> 16) & 0xffffLL) << 48;
  100cf5:	0f b7 45 e6          	movzwl -0x1a(%ebp),%eax
  100cf9:	c1 e0 10             	shl    $0x10,%eax
  100cfc:	8b 75 f0             	mov    -0x10(%ebp),%esi
  100cff:	8b 3c f5 20 80 10 00 	mov    0x108020(,%esi,8),%edi
  100d06:	8b 1c f5 24 80 10 00 	mov    0x108024(,%esi,8),%ebx
  100d0d:	09 c3                	or     %eax,%ebx
  100d0f:	89 3c f5 20 80 10 00 	mov    %edi,0x108020(,%esi,8)
  100d16:	89 1c f5 24 80 10 00 	mov    %ebx,0x108024(,%esi,8)
}
  100d1d:	83 c4 10             	add    $0x10,%esp
  100d20:	5e                   	pop    %esi
  100d21:	5f                   	pop    %edi
  100d22:	5b                   	pop    %ebx
  100d23:	5d                   	pop    %ebp
  100d24:	c3                   	ret    
  100d25:	66 66 2e 0f 1f 84 00 	data32 nopw %cs:0x0(%eax,%eax,1)
  100d2c:	00 00 00 00 

00100d30 <init_idt>:

void init_idt() {
  100d30:	55                   	push   %ebp
  100d31:	89 e5                	mov    %esp,%ebp
	struct {
  100d33:	56                   	push   %esi
  100d34:	81 ec 34 02 00 00    	sub    $0x234,%esp
  100d3a:	a1 2a 60 10 00       	mov    0x10602a,%eax
  100d3f:	89 45 f0             	mov    %eax,-0x10(%ebp)
  100d42:	66 8b 0d 2e 60 10 00 	mov    0x10602e,%cx
  100d49:	66 89 4d f4          	mov    %cx,-0xc(%ebp)
		unsigned short int limit;
		void* pointer;
	}__attribute__((packed)) idtp = { .limit = IDT_ENTRIES * 8 - 1, .pointer =
			idt, };

	int i = 0;
  100d4d:	c7 45 ec 00 00 00 00 	movl   $0x0,-0x14(%ebp)

	for (i = 0; i < IDT_ENTRIES; i++) {
  100d54:	c7 45 ec 00 00 00 00 	movl   $0x0,-0x14(%ebp)
  100d5b:	81 7d ec 40 00 00 00 	cmpl   $0x40,-0x14(%ebp)
  100d62:	0f 8d 1e 00 00 00    	jge    100d86 <init_idt+0x56>
		handler_set[i] = 0;
  100d68:	8b 45 ec             	mov    -0x14(%ebp),%eax
  100d6b:	c7 04 85 20 82 10 00 	movl   $0x0,0x108220(,%eax,4)
  100d72:	00 00 00 00 
	}__attribute__((packed)) idtp = { .limit = IDT_ENTRIES * 8 - 1, .pointer =
			idt, };

	int i = 0;

	for (i = 0; i < IDT_ENTRIES; i++) {
  100d76:	8b 45 ec             	mov    -0x14(%ebp),%eax
  100d79:	05 01 00 00 00       	add    $0x1,%eax
  100d7e:	89 45 ec             	mov    %eax,-0x14(%ebp)
  100d81:	e9 d5 ff ff ff       	jmp    100d5b <init_idt+0x2b>
  100d86:	b8 20 00 00 00       	mov    $0x20,%eax
  100d8b:	b9 11 00 00 00       	mov    $0x11,%ecx
		handler_set[i] = 0;
	}

	outb(0x20, 0x11); // Initialisierungsbefehl fuer den PIC
  100d90:	c7 04 24 20 00 00 00 	movl   $0x20,(%esp)
  100d97:	c7 44 24 04 11 00 00 	movl   $0x11,0x4(%esp)
  100d9e:	00 
  100d9f:	89 45 e8             	mov    %eax,-0x18(%ebp)
  100da2:	89 4d e4             	mov    %ecx,-0x1c(%ebp)
  100da5:	e8 86 0b 00 00       	call   101930 <outb>
  100daa:	b8 21 00 00 00       	mov    $0x21,%eax
  100daf:	b9 20 00 00 00       	mov    $0x20,%ecx
	outb(0x21, 0x20); // Interruptnummer fuer IRQ 0
  100db4:	c7 04 24 21 00 00 00 	movl   $0x21,(%esp)
  100dbb:	c7 44 24 04 20 00 00 	movl   $0x20,0x4(%esp)
  100dc2:	00 
  100dc3:	89 45 e0             	mov    %eax,-0x20(%ebp)
  100dc6:	89 4d dc             	mov    %ecx,-0x24(%ebp)
  100dc9:	e8 62 0b 00 00       	call   101930 <outb>
  100dce:	b8 21 00 00 00       	mov    $0x21,%eax
  100dd3:	b9 04 00 00 00       	mov    $0x4,%ecx
	outb(0x21, 0x04); // An IRQ 2 haengt der Slave
  100dd8:	c7 04 24 21 00 00 00 	movl   $0x21,(%esp)
  100ddf:	c7 44 24 04 04 00 00 	movl   $0x4,0x4(%esp)
  100de6:	00 
  100de7:	89 45 d8             	mov    %eax,-0x28(%ebp)
  100dea:	89 4d d4             	mov    %ecx,-0x2c(%ebp)
  100ded:	e8 3e 0b 00 00       	call   101930 <outb>
  100df2:	b8 21 00 00 00       	mov    $0x21,%eax
  100df7:	b9 01 00 00 00       	mov    $0x1,%ecx
	outb(0x21, 0x01); // ICW 4
  100dfc:	c7 04 24 21 00 00 00 	movl   $0x21,(%esp)
  100e03:	c7 44 24 04 01 00 00 	movl   $0x1,0x4(%esp)
  100e0a:	00 
  100e0b:	89 45 d0             	mov    %eax,-0x30(%ebp)
  100e0e:	89 4d cc             	mov    %ecx,-0x34(%ebp)
  100e11:	e8 1a 0b 00 00       	call   101930 <outb>
  100e16:	b8 a0 00 00 00       	mov    $0xa0,%eax
  100e1b:	b9 11 00 00 00       	mov    $0x11,%ecx

	outb(0xa0, 0x11); // Initialisierungsbefehl fuer den PIC
  100e20:	c7 04 24 a0 00 00 00 	movl   $0xa0,(%esp)
  100e27:	c7 44 24 04 11 00 00 	movl   $0x11,0x4(%esp)
  100e2e:	00 
  100e2f:	89 45 c8             	mov    %eax,-0x38(%ebp)
  100e32:	89 4d c4             	mov    %ecx,-0x3c(%ebp)
  100e35:	e8 f6 0a 00 00       	call   101930 <outb>
  100e3a:	b8 a1 00 00 00       	mov    $0xa1,%eax
  100e3f:	b9 28 00 00 00       	mov    $0x28,%ecx
	outb(0xa1, 0x28); // Interruptnummer fuer IRQ 8
  100e44:	c7 04 24 a1 00 00 00 	movl   $0xa1,(%esp)
  100e4b:	c7 44 24 04 28 00 00 	movl   $0x28,0x4(%esp)
  100e52:	00 
  100e53:	89 45 c0             	mov    %eax,-0x40(%ebp)
  100e56:	89 4d bc             	mov    %ecx,-0x44(%ebp)
  100e59:	e8 d2 0a 00 00       	call   101930 <outb>
  100e5e:	b8 a1 00 00 00       	mov    $0xa1,%eax
  100e63:	b9 02 00 00 00       	mov    $0x2,%ecx
	outb(0xa1, 0x02); // An IRQ 2 haengt der Slave
  100e68:	c7 04 24 a1 00 00 00 	movl   $0xa1,(%esp)
  100e6f:	c7 44 24 04 02 00 00 	movl   $0x2,0x4(%esp)
  100e76:	00 
  100e77:	89 45 b8             	mov    %eax,-0x48(%ebp)
  100e7a:	89 4d b4             	mov    %ecx,-0x4c(%ebp)
  100e7d:	e8 ae 0a 00 00       	call   101930 <outb>
  100e82:	b8 a1 00 00 00       	mov    $0xa1,%eax
  100e87:	b9 01 00 00 00       	mov    $0x1,%ecx
	outb(0xa1, 0x01); // ICW 4
  100e8c:	c7 04 24 a1 00 00 00 	movl   $0xa1,(%esp)
  100e93:	c7 44 24 04 01 00 00 	movl   $0x1,0x4(%esp)
  100e9a:	00 
  100e9b:	89 45 b0             	mov    %eax,-0x50(%ebp)
  100e9e:	89 4d ac             	mov    %ecx,-0x54(%ebp)
  100ea1:	e8 8a 0a 00 00       	call   101930 <outb>
  100ea6:	b8 20 00 00 00       	mov    $0x20,%eax
  100eab:	b9 00 00 00 00       	mov    $0x0,%ecx

	outb(0x20, 0x0);
  100eb0:	c7 04 24 20 00 00 00 	movl   $0x20,(%esp)
  100eb7:	c7 44 24 04 00 00 00 	movl   $0x0,0x4(%esp)
  100ebe:	00 
  100ebf:	89 45 a8             	mov    %eax,-0x58(%ebp)
  100ec2:	89 4d a4             	mov    %ecx,-0x5c(%ebp)
  100ec5:	e8 66 0a 00 00       	call   101930 <outb>
  100eca:	b8 a0 00 00 00       	mov    $0xa0,%eax
  100ecf:	b9 00 00 00 00       	mov    $0x0,%ecx
	outb(0xa0, 0x0);
  100ed4:	c7 04 24 a0 00 00 00 	movl   $0xa0,(%esp)
  100edb:	c7 44 24 04 00 00 00 	movl   $0x0,0x4(%esp)
  100ee2:	00 
  100ee3:	89 45 a0             	mov    %eax,-0x60(%ebp)
  100ee6:	89 4d 9c             	mov    %ecx,-0x64(%ebp)
  100ee9:	e8 42 0a 00 00       	call   101930 <outb>
  100eee:	b8 00 00 00 00       	mov    $0x0,%eax
  100ef3:	8d 0d 04 1b 10 00    	lea    0x101b04,%ecx
  100ef9:	ba 08 00 00 00       	mov    $0x8,%edx
  100efe:	be 8e 00 00 00       	mov    $0x8e,%esi

	idt_set_entry(0, intr_stub_0, 0x8,
  100f03:	c7 04 24 00 00 00 00 	movl   $0x0,(%esp)
  100f0a:	89 4c 24 04          	mov    %ecx,0x4(%esp)
  100f0e:	c7 44 24 08 08 00 00 	movl   $0x8,0x8(%esp)
  100f15:	00 
  100f16:	c7 44 24 0c 8e 00 00 	movl   $0x8e,0xc(%esp)
  100f1d:	00 
  100f1e:	89 45 98             	mov    %eax,-0x68(%ebp)
  100f21:	89 75 94             	mov    %esi,-0x6c(%ebp)
  100f24:	89 55 90             	mov    %edx,-0x70(%ebp)
  100f27:	e8 34 fd ff ff       	call   100c60 <idt_set_entry>
  100f2c:	b8 01 00 00 00       	mov    $0x1,%eax
  100f31:	8d 0d 0d 1b 10 00    	lea    0x101b0d,%ecx
  100f37:	ba 08 00 00 00       	mov    $0x8,%edx
  100f3c:	be 8e 00 00 00       	mov    $0x8e,%esi
			IDT_FLAG_INTERRUPT_GATE | IDT_FLAG_RING0 | IDT_FLAG_PRESENT);
	idt_set_entry(1, intr_stub_1, 0x8,
  100f41:	c7 04 24 01 00 00 00 	movl   $0x1,(%esp)
  100f48:	89 4c 24 04          	mov    %ecx,0x4(%esp)
  100f4c:	c7 44 24 08 08 00 00 	movl   $0x8,0x8(%esp)
  100f53:	00 
  100f54:	c7 44 24 0c 8e 00 00 	movl   $0x8e,0xc(%esp)
  100f5b:	00 
  100f5c:	89 45 8c             	mov    %eax,-0x74(%ebp)
  100f5f:	89 75 88             	mov    %esi,-0x78(%ebp)
  100f62:	89 55 84             	mov    %edx,-0x7c(%ebp)
  100f65:	e8 f6 fc ff ff       	call   100c60 <idt_set_entry>
  100f6a:	b8 02 00 00 00       	mov    $0x2,%eax
  100f6f:	8d 0d 16 1b 10 00    	lea    0x101b16,%ecx
  100f75:	ba 08 00 00 00       	mov    $0x8,%edx
  100f7a:	be 8e 00 00 00       	mov    $0x8e,%esi
			IDT_FLAG_INTERRUPT_GATE | IDT_FLAG_RING0 | IDT_FLAG_PRESENT);
	idt_set_entry(2, intr_stub_2, 0x8,
  100f7f:	c7 04 24 02 00 00 00 	movl   $0x2,(%esp)
  100f86:	89 4c 24 04          	mov    %ecx,0x4(%esp)
  100f8a:	c7 44 24 08 08 00 00 	movl   $0x8,0x8(%esp)
  100f91:	00 
  100f92:	c7 44 24 0c 8e 00 00 	movl   $0x8e,0xc(%esp)
  100f99:	00 
  100f9a:	89 45 80             	mov    %eax,-0x80(%ebp)
  100f9d:	89 b5 7c ff ff ff    	mov    %esi,-0x84(%ebp)
  100fa3:	89 95 78 ff ff ff    	mov    %edx,-0x88(%ebp)
  100fa9:	e8 b2 fc ff ff       	call   100c60 <idt_set_entry>
  100fae:	b8 03 00 00 00       	mov    $0x3,%eax
  100fb3:	8d 0d 1f 1b 10 00    	lea    0x101b1f,%ecx
  100fb9:	ba 08 00 00 00       	mov    $0x8,%edx
  100fbe:	be 8e 00 00 00       	mov    $0x8e,%esi
			IDT_FLAG_INTERRUPT_GATE | IDT_FLAG_RING0 | IDT_FLAG_PRESENT);
	idt_set_entry(3, intr_stub_3, 0x8,
  100fc3:	c7 04 24 03 00 00 00 	movl   $0x3,(%esp)
  100fca:	89 4c 24 04          	mov    %ecx,0x4(%esp)
  100fce:	c7 44 24 08 08 00 00 	movl   $0x8,0x8(%esp)
  100fd5:	00 
  100fd6:	c7 44 24 0c 8e 00 00 	movl   $0x8e,0xc(%esp)
  100fdd:	00 
  100fde:	89 85 74 ff ff ff    	mov    %eax,-0x8c(%ebp)
  100fe4:	89 b5 70 ff ff ff    	mov    %esi,-0x90(%ebp)
  100fea:	89 95 6c ff ff ff    	mov    %edx,-0x94(%ebp)
  100ff0:	e8 6b fc ff ff       	call   100c60 <idt_set_entry>
  100ff5:	b8 04 00 00 00       	mov    $0x4,%eax
  100ffa:	8d 0d 28 1b 10 00    	lea    0x101b28,%ecx
  101000:	ba 08 00 00 00       	mov    $0x8,%edx
  101005:	be 8e 00 00 00       	mov    $0x8e,%esi
			IDT_FLAG_INTERRUPT_GATE | IDT_FLAG_RING0 | IDT_FLAG_PRESENT);
	idt_set_entry(4, intr_stub_4, 0x8,
  10100a:	c7 04 24 04 00 00 00 	movl   $0x4,(%esp)
  101011:	89 4c 24 04          	mov    %ecx,0x4(%esp)
  101015:	c7 44 24 08 08 00 00 	movl   $0x8,0x8(%esp)
  10101c:	00 
  10101d:	c7 44 24 0c 8e 00 00 	movl   $0x8e,0xc(%esp)
  101024:	00 
  101025:	89 85 68 ff ff ff    	mov    %eax,-0x98(%ebp)
  10102b:	89 b5 64 ff ff ff    	mov    %esi,-0x9c(%ebp)
  101031:	89 95 60 ff ff ff    	mov    %edx,-0xa0(%ebp)
  101037:	e8 24 fc ff ff       	call   100c60 <idt_set_entry>
  10103c:	b8 05 00 00 00       	mov    $0x5,%eax
  101041:	8d 0d 31 1b 10 00    	lea    0x101b31,%ecx
  101047:	ba 08 00 00 00       	mov    $0x8,%edx
  10104c:	be 8e 00 00 00       	mov    $0x8e,%esi
			IDT_FLAG_INTERRUPT_GATE | IDT_FLAG_RING0 | IDT_FLAG_PRESENT);
	idt_set_entry(5, intr_stub_5, 0x8,
  101051:	c7 04 24 05 00 00 00 	movl   $0x5,(%esp)
  101058:	89 4c 24 04          	mov    %ecx,0x4(%esp)
  10105c:	c7 44 24 08 08 00 00 	movl   $0x8,0x8(%esp)
  101063:	00 
  101064:	c7 44 24 0c 8e 00 00 	movl   $0x8e,0xc(%esp)
  10106b:	00 
  10106c:	89 85 5c ff ff ff    	mov    %eax,-0xa4(%ebp)
  101072:	89 b5 58 ff ff ff    	mov    %esi,-0xa8(%ebp)
  101078:	89 95 54 ff ff ff    	mov    %edx,-0xac(%ebp)
  10107e:	e8 dd fb ff ff       	call   100c60 <idt_set_entry>
  101083:	b8 06 00 00 00       	mov    $0x6,%eax
  101088:	8d 0d 3a 1b 10 00    	lea    0x101b3a,%ecx
  10108e:	ba 08 00 00 00       	mov    $0x8,%edx
  101093:	be 8e 00 00 00       	mov    $0x8e,%esi
			IDT_FLAG_INTERRUPT_GATE | IDT_FLAG_RING0 | IDT_FLAG_PRESENT);
	idt_set_entry(6, intr_stub_6, 0x8,
  101098:	c7 04 24 06 00 00 00 	movl   $0x6,(%esp)
  10109f:	89 4c 24 04          	mov    %ecx,0x4(%esp)
  1010a3:	c7 44 24 08 08 00 00 	movl   $0x8,0x8(%esp)
  1010aa:	00 
  1010ab:	c7 44 24 0c 8e 00 00 	movl   $0x8e,0xc(%esp)
  1010b2:	00 
  1010b3:	89 85 50 ff ff ff    	mov    %eax,-0xb0(%ebp)
  1010b9:	89 b5 4c ff ff ff    	mov    %esi,-0xb4(%ebp)
  1010bf:	89 95 48 ff ff ff    	mov    %edx,-0xb8(%ebp)
  1010c5:	e8 96 fb ff ff       	call   100c60 <idt_set_entry>
  1010ca:	b8 07 00 00 00       	mov    $0x7,%eax
  1010cf:	8d 0d 43 1b 10 00    	lea    0x101b43,%ecx
  1010d5:	ba 08 00 00 00       	mov    $0x8,%edx
  1010da:	be 8e 00 00 00       	mov    $0x8e,%esi
			IDT_FLAG_INTERRUPT_GATE | IDT_FLAG_RING0 | IDT_FLAG_PRESENT);
	idt_set_entry(7, intr_stub_7, 0x8,
  1010df:	c7 04 24 07 00 00 00 	movl   $0x7,(%esp)
  1010e6:	89 4c 24 04          	mov    %ecx,0x4(%esp)
  1010ea:	c7 44 24 08 08 00 00 	movl   $0x8,0x8(%esp)
  1010f1:	00 
  1010f2:	c7 44 24 0c 8e 00 00 	movl   $0x8e,0xc(%esp)
  1010f9:	00 
  1010fa:	89 85 44 ff ff ff    	mov    %eax,-0xbc(%ebp)
  101100:	89 b5 40 ff ff ff    	mov    %esi,-0xc0(%ebp)
  101106:	89 95 3c ff ff ff    	mov    %edx,-0xc4(%ebp)
  10110c:	e8 4f fb ff ff       	call   100c60 <idt_set_entry>
  101111:	b8 08 00 00 00       	mov    $0x8,%eax
  101116:	8d 0d 4c 1b 10 00    	lea    0x101b4c,%ecx
  10111c:	ba 8e 00 00 00       	mov    $0x8e,%edx
			IDT_FLAG_INTERRUPT_GATE | IDT_FLAG_RING0 | IDT_FLAG_PRESENT);
	idt_set_entry(8, intr_stub_8, 0x8,
  101121:	c7 04 24 08 00 00 00 	movl   $0x8,(%esp)
  101128:	89 4c 24 04          	mov    %ecx,0x4(%esp)
  10112c:	c7 44 24 08 08 00 00 	movl   $0x8,0x8(%esp)
  101133:	00 
  101134:	c7 44 24 0c 8e 00 00 	movl   $0x8e,0xc(%esp)
  10113b:	00 
  10113c:	89 85 38 ff ff ff    	mov    %eax,-0xc8(%ebp)
  101142:	89 95 34 ff ff ff    	mov    %edx,-0xcc(%ebp)
  101148:	e8 13 fb ff ff       	call   100c60 <idt_set_entry>
  10114d:	b8 09 00 00 00       	mov    $0x9,%eax
  101152:	8d 0d 53 1b 10 00    	lea    0x101b53,%ecx
  101158:	ba 08 00 00 00       	mov    $0x8,%edx
  10115d:	be 8e 00 00 00       	mov    $0x8e,%esi
			IDT_FLAG_INTERRUPT_GATE | IDT_FLAG_RING0 | IDT_FLAG_PRESENT);
	idt_set_entry(9, intr_stub_9, 0x8,
  101162:	c7 04 24 09 00 00 00 	movl   $0x9,(%esp)
  101169:	89 4c 24 04          	mov    %ecx,0x4(%esp)
  10116d:	c7 44 24 08 08 00 00 	movl   $0x8,0x8(%esp)
  101174:	00 
  101175:	c7 44 24 0c 8e 00 00 	movl   $0x8e,0xc(%esp)
  10117c:	00 
  10117d:	89 85 30 ff ff ff    	mov    %eax,-0xd0(%ebp)
  101183:	89 b5 2c ff ff ff    	mov    %esi,-0xd4(%ebp)
  101189:	89 95 28 ff ff ff    	mov    %edx,-0xd8(%ebp)
  10118f:	e8 cc fa ff ff       	call   100c60 <idt_set_entry>
  101194:	b8 0a 00 00 00       	mov    $0xa,%eax
  101199:	8d 0d 5c 1b 10 00    	lea    0x101b5c,%ecx
  10119f:	ba 08 00 00 00       	mov    $0x8,%edx
  1011a4:	be 8e 00 00 00       	mov    $0x8e,%esi
			IDT_FLAG_INTERRUPT_GATE | IDT_FLAG_RING0 | IDT_FLAG_PRESENT);
	idt_set_entry(10, intr_stub_10, 0x8,
  1011a9:	c7 04 24 0a 00 00 00 	movl   $0xa,(%esp)
  1011b0:	89 4c 24 04          	mov    %ecx,0x4(%esp)
  1011b4:	c7 44 24 08 08 00 00 	movl   $0x8,0x8(%esp)
  1011bb:	00 
  1011bc:	c7 44 24 0c 8e 00 00 	movl   $0x8e,0xc(%esp)
  1011c3:	00 
  1011c4:	89 85 24 ff ff ff    	mov    %eax,-0xdc(%ebp)
  1011ca:	89 b5 20 ff ff ff    	mov    %esi,-0xe0(%ebp)
  1011d0:	89 95 1c ff ff ff    	mov    %edx,-0xe4(%ebp)
  1011d6:	e8 85 fa ff ff       	call   100c60 <idt_set_entry>
  1011db:	b8 0b 00 00 00       	mov    $0xb,%eax
  1011e0:	8d 0d 63 1b 10 00    	lea    0x101b63,%ecx
  1011e6:	ba 08 00 00 00       	mov    $0x8,%edx
  1011eb:	be 8e 00 00 00       	mov    $0x8e,%esi
			IDT_FLAG_INTERRUPT_GATE | IDT_FLAG_RING0 | IDT_FLAG_PRESENT);
	idt_set_entry(11, intr_stub_11, 0x8,
  1011f0:	c7 04 24 0b 00 00 00 	movl   $0xb,(%esp)
  1011f7:	89 4c 24 04          	mov    %ecx,0x4(%esp)
  1011fb:	c7 44 24 08 08 00 00 	movl   $0x8,0x8(%esp)
  101202:	00 
  101203:	c7 44 24 0c 8e 00 00 	movl   $0x8e,0xc(%esp)
  10120a:	00 
  10120b:	89 85 18 ff ff ff    	mov    %eax,-0xe8(%ebp)
  101211:	89 b5 14 ff ff ff    	mov    %esi,-0xec(%ebp)
  101217:	89 95 10 ff ff ff    	mov    %edx,-0xf0(%ebp)
  10121d:	e8 3e fa ff ff       	call   100c60 <idt_set_entry>
  101222:	b8 0c 00 00 00       	mov    $0xc,%eax
  101227:	8d 0d 6a 1b 10 00    	lea    0x101b6a,%ecx
  10122d:	ba 08 00 00 00       	mov    $0x8,%edx
  101232:	be 8e 00 00 00       	mov    $0x8e,%esi
			IDT_FLAG_INTERRUPT_GATE | IDT_FLAG_RING0 | IDT_FLAG_PRESENT);
	idt_set_entry(12, intr_stub_12, 0x8,
  101237:	c7 04 24 0c 00 00 00 	movl   $0xc,(%esp)
  10123e:	89 4c 24 04          	mov    %ecx,0x4(%esp)
  101242:	c7 44 24 08 08 00 00 	movl   $0x8,0x8(%esp)
  101249:	00 
  10124a:	c7 44 24 0c 8e 00 00 	movl   $0x8e,0xc(%esp)
  101251:	00 
  101252:	89 85 0c ff ff ff    	mov    %eax,-0xf4(%ebp)
  101258:	89 b5 08 ff ff ff    	mov    %esi,-0xf8(%ebp)
  10125e:	89 95 04 ff ff ff    	mov    %edx,-0xfc(%ebp)
  101264:	e8 f7 f9 ff ff       	call   100c60 <idt_set_entry>
  101269:	b8 0d 00 00 00       	mov    $0xd,%eax
  10126e:	8d 0d 71 1b 10 00    	lea    0x101b71,%ecx
  101274:	ba 08 00 00 00       	mov    $0x8,%edx
  101279:	be 8e 00 00 00       	mov    $0x8e,%esi
			IDT_FLAG_INTERRUPT_GATE | IDT_FLAG_RING0 | IDT_FLAG_PRESENT);
	idt_set_entry(13, intr_stub_13, 0x8,
  10127e:	c7 04 24 0d 00 00 00 	movl   $0xd,(%esp)
  101285:	89 4c 24 04          	mov    %ecx,0x4(%esp)
  101289:	c7 44 24 08 08 00 00 	movl   $0x8,0x8(%esp)
  101290:	00 
  101291:	c7 44 24 0c 8e 00 00 	movl   $0x8e,0xc(%esp)
  101298:	00 
  101299:	89 85 00 ff ff ff    	mov    %eax,-0x100(%ebp)
  10129f:	89 b5 fc fe ff ff    	mov    %esi,-0x104(%ebp)
  1012a5:	89 95 f8 fe ff ff    	mov    %edx,-0x108(%ebp)
  1012ab:	e8 b0 f9 ff ff       	call   100c60 <idt_set_entry>
  1012b0:	b8 0e 00 00 00       	mov    $0xe,%eax
  1012b5:	8d 0d 78 1b 10 00    	lea    0x101b78,%ecx
  1012bb:	ba 08 00 00 00       	mov    $0x8,%edx
  1012c0:	be 8e 00 00 00       	mov    $0x8e,%esi
			IDT_FLAG_INTERRUPT_GATE | IDT_FLAG_RING0 | IDT_FLAG_PRESENT);
	idt_set_entry(14, intr_stub_14, 0x8,
  1012c5:	c7 04 24 0e 00 00 00 	movl   $0xe,(%esp)
  1012cc:	89 4c 24 04          	mov    %ecx,0x4(%esp)
  1012d0:	c7 44 24 08 08 00 00 	movl   $0x8,0x8(%esp)
  1012d7:	00 
  1012d8:	c7 44 24 0c 8e 00 00 	movl   $0x8e,0xc(%esp)
  1012df:	00 
  1012e0:	89 85 f4 fe ff ff    	mov    %eax,-0x10c(%ebp)
  1012e6:	89 b5 f0 fe ff ff    	mov    %esi,-0x110(%ebp)
  1012ec:	89 95 ec fe ff ff    	mov    %edx,-0x114(%ebp)
  1012f2:	e8 69 f9 ff ff       	call   100c60 <idt_set_entry>
  1012f7:	b8 0f 00 00 00       	mov    $0xf,%eax
  1012fc:	8d 0d 7c 1b 10 00    	lea    0x101b7c,%ecx
  101302:	ba 08 00 00 00       	mov    $0x8,%edx
  101307:	be 8e 00 00 00       	mov    $0x8e,%esi
			IDT_FLAG_INTERRUPT_GATE | IDT_FLAG_RING0 | IDT_FLAG_PRESENT);
	idt_set_entry(15, intr_stub_15, 0x8,
  10130c:	c7 04 24 0f 00 00 00 	movl   $0xf,(%esp)
  101313:	89 4c 24 04          	mov    %ecx,0x4(%esp)
  101317:	c7 44 24 08 08 00 00 	movl   $0x8,0x8(%esp)
  10131e:	00 
  10131f:	c7 44 24 0c 8e 00 00 	movl   $0x8e,0xc(%esp)
  101326:	00 
  101327:	89 85 e8 fe ff ff    	mov    %eax,-0x118(%ebp)
  10132d:	89 b5 e4 fe ff ff    	mov    %esi,-0x11c(%ebp)
  101333:	89 95 e0 fe ff ff    	mov    %edx,-0x120(%ebp)
  101339:	e8 22 f9 ff ff       	call   100c60 <idt_set_entry>
  10133e:	b8 10 00 00 00       	mov    $0x10,%eax
  101343:	8d 0d 82 1b 10 00    	lea    0x101b82,%ecx
  101349:	ba 08 00 00 00       	mov    $0x8,%edx
  10134e:	be 8e 00 00 00       	mov    $0x8e,%esi
			IDT_FLAG_INTERRUPT_GATE | IDT_FLAG_RING0 | IDT_FLAG_PRESENT);
	idt_set_entry(16, intr_stub_16, 0x8,
  101353:	c7 04 24 10 00 00 00 	movl   $0x10,(%esp)
  10135a:	89 4c 24 04          	mov    %ecx,0x4(%esp)
  10135e:	c7 44 24 08 08 00 00 	movl   $0x8,0x8(%esp)
  101365:	00 
  101366:	c7 44 24 0c 8e 00 00 	movl   $0x8e,0xc(%esp)
  10136d:	00 
  10136e:	89 85 dc fe ff ff    	mov    %eax,-0x124(%ebp)
  101374:	89 b5 d8 fe ff ff    	mov    %esi,-0x128(%ebp)
  10137a:	89 95 d4 fe ff ff    	mov    %edx,-0x12c(%ebp)
  101380:	e8 db f8 ff ff       	call   100c60 <idt_set_entry>
  101385:	b8 11 00 00 00       	mov    $0x11,%eax
  10138a:	8d 0d 88 1b 10 00    	lea    0x101b88,%ecx
  101390:	ba 08 00 00 00       	mov    $0x8,%edx
  101395:	be 8e 00 00 00       	mov    $0x8e,%esi
			IDT_FLAG_INTERRUPT_GATE | IDT_FLAG_RING0 | IDT_FLAG_PRESENT);
	idt_set_entry(17, intr_stub_17, 0x8,
  10139a:	c7 04 24 11 00 00 00 	movl   $0x11,(%esp)
  1013a1:	89 4c 24 04          	mov    %ecx,0x4(%esp)
  1013a5:	c7 44 24 08 08 00 00 	movl   $0x8,0x8(%esp)
  1013ac:	00 
  1013ad:	c7 44 24 0c 8e 00 00 	movl   $0x8e,0xc(%esp)
  1013b4:	00 
  1013b5:	89 85 d0 fe ff ff    	mov    %eax,-0x130(%ebp)
  1013bb:	89 b5 cc fe ff ff    	mov    %esi,-0x134(%ebp)
  1013c1:	89 95 c8 fe ff ff    	mov    %edx,-0x138(%ebp)
  1013c7:	e8 94 f8 ff ff       	call   100c60 <idt_set_entry>
  1013cc:	b8 12 00 00 00       	mov    $0x12,%eax
  1013d1:	8d 0d 8c 1b 10 00    	lea    0x101b8c,%ecx
  1013d7:	ba 08 00 00 00       	mov    $0x8,%edx
  1013dc:	be 8e 00 00 00       	mov    $0x8e,%esi
			IDT_FLAG_INTERRUPT_GATE | IDT_FLAG_RING0 | IDT_FLAG_PRESENT);
	idt_set_entry(18, intr_stub_18, 0x8,
  1013e1:	c7 04 24 12 00 00 00 	movl   $0x12,(%esp)
  1013e8:	89 4c 24 04          	mov    %ecx,0x4(%esp)
  1013ec:	c7 44 24 08 08 00 00 	movl   $0x8,0x8(%esp)
  1013f3:	00 
  1013f4:	c7 44 24 0c 8e 00 00 	movl   $0x8e,0xc(%esp)
  1013fb:	00 
  1013fc:	89 85 c4 fe ff ff    	mov    %eax,-0x13c(%ebp)
  101402:	89 b5 c0 fe ff ff    	mov    %esi,-0x140(%ebp)
  101408:	89 95 bc fe ff ff    	mov    %edx,-0x144(%ebp)
  10140e:	e8 4d f8 ff ff       	call   100c60 <idt_set_entry>
  101413:	b8 20 00 00 00       	mov    $0x20,%eax
  101418:	8d 0d 92 1b 10 00    	lea    0x101b92,%ecx
  10141e:	ba 08 00 00 00       	mov    $0x8,%edx
  101423:	be 8e 00 00 00       	mov    $0x8e,%esi
			IDT_FLAG_INTERRUPT_GATE | IDT_FLAG_RING0 | IDT_FLAG_PRESENT);

	idt_set_entry(32, intr_stub_32, 0x8,
  101428:	c7 04 24 20 00 00 00 	movl   $0x20,(%esp)
  10142f:	89 4c 24 04          	mov    %ecx,0x4(%esp)
  101433:	c7 44 24 08 08 00 00 	movl   $0x8,0x8(%esp)
  10143a:	00 
  10143b:	c7 44 24 0c 8e 00 00 	movl   $0x8e,0xc(%esp)
  101442:	00 
  101443:	89 85 b8 fe ff ff    	mov    %eax,-0x148(%ebp)
  101449:	89 b5 b4 fe ff ff    	mov    %esi,-0x14c(%ebp)
  10144f:	89 95 b0 fe ff ff    	mov    %edx,-0x150(%ebp)
  101455:	e8 06 f8 ff ff       	call   100c60 <idt_set_entry>
  10145a:	b8 21 00 00 00       	mov    $0x21,%eax
  10145f:	8d 0d 98 1b 10 00    	lea    0x101b98,%ecx
  101465:	ba 08 00 00 00       	mov    $0x8,%edx
  10146a:	be 8e 00 00 00       	mov    $0x8e,%esi
			IDT_FLAG_INTERRUPT_GATE | IDT_FLAG_RING0 | IDT_FLAG_PRESENT);
	idt_set_entry(33, intr_stub_33, 0x8,
  10146f:	c7 04 24 21 00 00 00 	movl   $0x21,(%esp)
  101476:	89 4c 24 04          	mov    %ecx,0x4(%esp)
  10147a:	c7 44 24 08 08 00 00 	movl   $0x8,0x8(%esp)
  101481:	00 
  101482:	c7 44 24 0c 8e 00 00 	movl   $0x8e,0xc(%esp)
  101489:	00 
  10148a:	89 85 ac fe ff ff    	mov    %eax,-0x154(%ebp)
  101490:	89 b5 a8 fe ff ff    	mov    %esi,-0x158(%ebp)
  101496:	89 95 a4 fe ff ff    	mov    %edx,-0x15c(%ebp)
  10149c:	e8 bf f7 ff ff       	call   100c60 <idt_set_entry>
  1014a1:	b8 22 00 00 00       	mov    $0x22,%eax
  1014a6:	8d 0d 9e 1b 10 00    	lea    0x101b9e,%ecx
  1014ac:	ba 08 00 00 00       	mov    $0x8,%edx
  1014b1:	be 8e 00 00 00       	mov    $0x8e,%esi
			IDT_FLAG_INTERRUPT_GATE | IDT_FLAG_RING0 | IDT_FLAG_PRESENT);
	idt_set_entry(34, intr_stub_34, 0x8,
  1014b6:	c7 04 24 22 00 00 00 	movl   $0x22,(%esp)
  1014bd:	89 4c 24 04          	mov    %ecx,0x4(%esp)
  1014c1:	c7 44 24 08 08 00 00 	movl   $0x8,0x8(%esp)
  1014c8:	00 
  1014c9:	c7 44 24 0c 8e 00 00 	movl   $0x8e,0xc(%esp)
  1014d0:	00 
  1014d1:	89 85 a0 fe ff ff    	mov    %eax,-0x160(%ebp)
  1014d7:	89 b5 9c fe ff ff    	mov    %esi,-0x164(%ebp)
  1014dd:	89 95 98 fe ff ff    	mov    %edx,-0x168(%ebp)
  1014e3:	e8 78 f7 ff ff       	call   100c60 <idt_set_entry>
  1014e8:	b8 23 00 00 00       	mov    $0x23,%eax
  1014ed:	8d 0d a4 1b 10 00    	lea    0x101ba4,%ecx
  1014f3:	ba 08 00 00 00       	mov    $0x8,%edx
  1014f8:	be 8e 00 00 00       	mov    $0x8e,%esi
			IDT_FLAG_INTERRUPT_GATE | IDT_FLAG_RING0 | IDT_FLAG_PRESENT);
	idt_set_entry(35, intr_stub_35, 0x8,
  1014fd:	c7 04 24 23 00 00 00 	movl   $0x23,(%esp)
  101504:	89 4c 24 04          	mov    %ecx,0x4(%esp)
  101508:	c7 44 24 08 08 00 00 	movl   $0x8,0x8(%esp)
  10150f:	00 
  101510:	c7 44 24 0c 8e 00 00 	movl   $0x8e,0xc(%esp)
  101517:	00 
  101518:	89 85 94 fe ff ff    	mov    %eax,-0x16c(%ebp)
  10151e:	89 b5 90 fe ff ff    	mov    %esi,-0x170(%ebp)
  101524:	89 95 8c fe ff ff    	mov    %edx,-0x174(%ebp)
  10152a:	e8 31 f7 ff ff       	call   100c60 <idt_set_entry>
  10152f:	b8 24 00 00 00       	mov    $0x24,%eax
  101534:	8d 0d aa 1b 10 00    	lea    0x101baa,%ecx
  10153a:	ba 08 00 00 00       	mov    $0x8,%edx
  10153f:	be 8e 00 00 00       	mov    $0x8e,%esi
			IDT_FLAG_INTERRUPT_GATE | IDT_FLAG_RING0 | IDT_FLAG_PRESENT);
	idt_set_entry(36, intr_stub_36, 0x8,
  101544:	c7 04 24 24 00 00 00 	movl   $0x24,(%esp)
  10154b:	89 4c 24 04          	mov    %ecx,0x4(%esp)
  10154f:	c7 44 24 08 08 00 00 	movl   $0x8,0x8(%esp)
  101556:	00 
  101557:	c7 44 24 0c 8e 00 00 	movl   $0x8e,0xc(%esp)
  10155e:	00 
  10155f:	89 85 88 fe ff ff    	mov    %eax,-0x178(%ebp)
  101565:	89 b5 84 fe ff ff    	mov    %esi,-0x17c(%ebp)
  10156b:	89 95 80 fe ff ff    	mov    %edx,-0x180(%ebp)
  101571:	e8 ea f6 ff ff       	call   100c60 <idt_set_entry>
  101576:	b8 25 00 00 00       	mov    $0x25,%eax
  10157b:	8d 0d b0 1b 10 00    	lea    0x101bb0,%ecx
  101581:	ba 08 00 00 00       	mov    $0x8,%edx
  101586:	be 8e 00 00 00       	mov    $0x8e,%esi
			IDT_FLAG_INTERRUPT_GATE | IDT_FLAG_RING0 | IDT_FLAG_PRESENT);
	idt_set_entry(37, intr_stub_37, 0x8,
  10158b:	c7 04 24 25 00 00 00 	movl   $0x25,(%esp)
  101592:	89 4c 24 04          	mov    %ecx,0x4(%esp)
  101596:	c7 44 24 08 08 00 00 	movl   $0x8,0x8(%esp)
  10159d:	00 
  10159e:	c7 44 24 0c 8e 00 00 	movl   $0x8e,0xc(%esp)
  1015a5:	00 
  1015a6:	89 85 7c fe ff ff    	mov    %eax,-0x184(%ebp)
  1015ac:	89 b5 78 fe ff ff    	mov    %esi,-0x188(%ebp)
  1015b2:	89 95 74 fe ff ff    	mov    %edx,-0x18c(%ebp)
  1015b8:	e8 a3 f6 ff ff       	call   100c60 <idt_set_entry>
  1015bd:	b8 26 00 00 00       	mov    $0x26,%eax
  1015c2:	8d 0d b6 1b 10 00    	lea    0x101bb6,%ecx
  1015c8:	ba 08 00 00 00       	mov    $0x8,%edx
  1015cd:	be 8e 00 00 00       	mov    $0x8e,%esi
			IDT_FLAG_INTERRUPT_GATE | IDT_FLAG_RING0 | IDT_FLAG_PRESENT);
	idt_set_entry(38, intr_stub_38, 0x8,
  1015d2:	c7 04 24 26 00 00 00 	movl   $0x26,(%esp)
  1015d9:	89 4c 24 04          	mov    %ecx,0x4(%esp)
  1015dd:	c7 44 24 08 08 00 00 	movl   $0x8,0x8(%esp)
  1015e4:	00 
  1015e5:	c7 44 24 0c 8e 00 00 	movl   $0x8e,0xc(%esp)
  1015ec:	00 
  1015ed:	89 85 70 fe ff ff    	mov    %eax,-0x190(%ebp)
  1015f3:	89 b5 6c fe ff ff    	mov    %esi,-0x194(%ebp)
  1015f9:	89 95 68 fe ff ff    	mov    %edx,-0x198(%ebp)
  1015ff:	e8 5c f6 ff ff       	call   100c60 <idt_set_entry>
  101604:	b8 27 00 00 00       	mov    $0x27,%eax
  101609:	8d 0d bc 1b 10 00    	lea    0x101bbc,%ecx
  10160f:	ba 08 00 00 00       	mov    $0x8,%edx
  101614:	be 8e 00 00 00       	mov    $0x8e,%esi
			IDT_FLAG_INTERRUPT_GATE | IDT_FLAG_RING0 | IDT_FLAG_PRESENT);
	idt_set_entry(39, intr_stub_39, 0x8,
  101619:	c7 04 24 27 00 00 00 	movl   $0x27,(%esp)
  101620:	89 4c 24 04          	mov    %ecx,0x4(%esp)
  101624:	c7 44 24 08 08 00 00 	movl   $0x8,0x8(%esp)
  10162b:	00 
  10162c:	c7 44 24 0c 8e 00 00 	movl   $0x8e,0xc(%esp)
  101633:	00 
  101634:	89 85 64 fe ff ff    	mov    %eax,-0x19c(%ebp)
  10163a:	89 b5 60 fe ff ff    	mov    %esi,-0x1a0(%ebp)
  101640:	89 95 5c fe ff ff    	mov    %edx,-0x1a4(%ebp)
  101646:	e8 15 f6 ff ff       	call   100c60 <idt_set_entry>
  10164b:	b8 28 00 00 00       	mov    $0x28,%eax
  101650:	8d 0d c2 1b 10 00    	lea    0x101bc2,%ecx
  101656:	ba 08 00 00 00       	mov    $0x8,%edx
  10165b:	be 8e 00 00 00       	mov    $0x8e,%esi
			IDT_FLAG_INTERRUPT_GATE | IDT_FLAG_RING0 | IDT_FLAG_PRESENT);
	idt_set_entry(40, intr_stub_40, 0x8,
  101660:	c7 04 24 28 00 00 00 	movl   $0x28,(%esp)
  101667:	89 4c 24 04          	mov    %ecx,0x4(%esp)
  10166b:	c7 44 24 08 08 00 00 	movl   $0x8,0x8(%esp)
  101672:	00 
  101673:	c7 44 24 0c 8e 00 00 	movl   $0x8e,0xc(%esp)
  10167a:	00 
  10167b:	89 85 58 fe ff ff    	mov    %eax,-0x1a8(%ebp)
  101681:	89 b5 54 fe ff ff    	mov    %esi,-0x1ac(%ebp)
  101687:	89 95 50 fe ff ff    	mov    %edx,-0x1b0(%ebp)
  10168d:	e8 ce f5 ff ff       	call   100c60 <idt_set_entry>
  101692:	b8 29 00 00 00       	mov    $0x29,%eax
  101697:	8d 0d c8 1b 10 00    	lea    0x101bc8,%ecx
  10169d:	ba 08 00 00 00       	mov    $0x8,%edx
  1016a2:	be 8e 00 00 00       	mov    $0x8e,%esi
			IDT_FLAG_INTERRUPT_GATE | IDT_FLAG_RING0 | IDT_FLAG_PRESENT);
	idt_set_entry(41, intr_stub_41, 0x8,
  1016a7:	c7 04 24 29 00 00 00 	movl   $0x29,(%esp)
  1016ae:	89 4c 24 04          	mov    %ecx,0x4(%esp)
  1016b2:	c7 44 24 08 08 00 00 	movl   $0x8,0x8(%esp)
  1016b9:	00 
  1016ba:	c7 44 24 0c 8e 00 00 	movl   $0x8e,0xc(%esp)
  1016c1:	00 
  1016c2:	89 85 4c fe ff ff    	mov    %eax,-0x1b4(%ebp)
  1016c8:	89 b5 48 fe ff ff    	mov    %esi,-0x1b8(%ebp)
  1016ce:	89 95 44 fe ff ff    	mov    %edx,-0x1bc(%ebp)
  1016d4:	e8 87 f5 ff ff       	call   100c60 <idt_set_entry>
  1016d9:	b8 2a 00 00 00       	mov    $0x2a,%eax
  1016de:	8d 0d ce 1b 10 00    	lea    0x101bce,%ecx
  1016e4:	ba 08 00 00 00       	mov    $0x8,%edx
  1016e9:	be 8e 00 00 00       	mov    $0x8e,%esi
			IDT_FLAG_INTERRUPT_GATE | IDT_FLAG_RING0 | IDT_FLAG_PRESENT);
	idt_set_entry(42, intr_stub_42, 0x8,
  1016ee:	c7 04 24 2a 00 00 00 	movl   $0x2a,(%esp)
  1016f5:	89 4c 24 04          	mov    %ecx,0x4(%esp)
  1016f9:	c7 44 24 08 08 00 00 	movl   $0x8,0x8(%esp)
  101700:	00 
  101701:	c7 44 24 0c 8e 00 00 	movl   $0x8e,0xc(%esp)
  101708:	00 
  101709:	89 85 40 fe ff ff    	mov    %eax,-0x1c0(%ebp)
  10170f:	89 b5 3c fe ff ff    	mov    %esi,-0x1c4(%ebp)
  101715:	89 95 38 fe ff ff    	mov    %edx,-0x1c8(%ebp)
  10171b:	e8 40 f5 ff ff       	call   100c60 <idt_set_entry>
  101720:	b8 2b 00 00 00       	mov    $0x2b,%eax
  101725:	8d 0d d4 1b 10 00    	lea    0x101bd4,%ecx
  10172b:	ba 08 00 00 00       	mov    $0x8,%edx
  101730:	be 8e 00 00 00       	mov    $0x8e,%esi
			IDT_FLAG_INTERRUPT_GATE | IDT_FLAG_RING0 | IDT_FLAG_PRESENT);
	idt_set_entry(43, intr_stub_43, 0x8,
  101735:	c7 04 24 2b 00 00 00 	movl   $0x2b,(%esp)
  10173c:	89 4c 24 04          	mov    %ecx,0x4(%esp)
  101740:	c7 44 24 08 08 00 00 	movl   $0x8,0x8(%esp)
  101747:	00 
  101748:	c7 44 24 0c 8e 00 00 	movl   $0x8e,0xc(%esp)
  10174f:	00 
  101750:	89 85 34 fe ff ff    	mov    %eax,-0x1cc(%ebp)
  101756:	89 b5 30 fe ff ff    	mov    %esi,-0x1d0(%ebp)
  10175c:	89 95 2c fe ff ff    	mov    %edx,-0x1d4(%ebp)
  101762:	e8 f9 f4 ff ff       	call   100c60 <idt_set_entry>
  101767:	b8 2c 00 00 00       	mov    $0x2c,%eax
  10176c:	8d 0d da 1b 10 00    	lea    0x101bda,%ecx
  101772:	ba 08 00 00 00       	mov    $0x8,%edx
  101777:	be 8e 00 00 00       	mov    $0x8e,%esi
			IDT_FLAG_INTERRUPT_GATE | IDT_FLAG_RING0 | IDT_FLAG_PRESENT);
	idt_set_entry(44, intr_stub_44, 0x8,
  10177c:	c7 04 24 2c 00 00 00 	movl   $0x2c,(%esp)
  101783:	89 4c 24 04          	mov    %ecx,0x4(%esp)
  101787:	c7 44 24 08 08 00 00 	movl   $0x8,0x8(%esp)
  10178e:	00 
  10178f:	c7 44 24 0c 8e 00 00 	movl   $0x8e,0xc(%esp)
  101796:	00 
  101797:	89 85 28 fe ff ff    	mov    %eax,-0x1d8(%ebp)
  10179d:	89 b5 24 fe ff ff    	mov    %esi,-0x1dc(%ebp)
  1017a3:	89 95 20 fe ff ff    	mov    %edx,-0x1e0(%ebp)
  1017a9:	e8 b2 f4 ff ff       	call   100c60 <idt_set_entry>
  1017ae:	b8 2d 00 00 00       	mov    $0x2d,%eax
  1017b3:	8d 0d e0 1b 10 00    	lea    0x101be0,%ecx
  1017b9:	ba 08 00 00 00       	mov    $0x8,%edx
  1017be:	be 8e 00 00 00       	mov    $0x8e,%esi
			IDT_FLAG_INTERRUPT_GATE | IDT_FLAG_RING0 | IDT_FLAG_PRESENT);
	idt_set_entry(45, intr_stub_45, 0x8,
  1017c3:	c7 04 24 2d 00 00 00 	movl   $0x2d,(%esp)
  1017ca:	89 4c 24 04          	mov    %ecx,0x4(%esp)
  1017ce:	c7 44 24 08 08 00 00 	movl   $0x8,0x8(%esp)
  1017d5:	00 
  1017d6:	c7 44 24 0c 8e 00 00 	movl   $0x8e,0xc(%esp)
  1017dd:	00 
  1017de:	89 85 1c fe ff ff    	mov    %eax,-0x1e4(%ebp)
  1017e4:	89 b5 18 fe ff ff    	mov    %esi,-0x1e8(%ebp)
  1017ea:	89 95 14 fe ff ff    	mov    %edx,-0x1ec(%ebp)
  1017f0:	e8 6b f4 ff ff       	call   100c60 <idt_set_entry>
  1017f5:	b8 2e 00 00 00       	mov    $0x2e,%eax
  1017fa:	8d 0d e6 1b 10 00    	lea    0x101be6,%ecx
  101800:	ba 08 00 00 00       	mov    $0x8,%edx
  101805:	be 8e 00 00 00       	mov    $0x8e,%esi
			IDT_FLAG_INTERRUPT_GATE | IDT_FLAG_RING0 | IDT_FLAG_PRESENT);
	idt_set_entry(46, intr_stub_46, 0x8,
  10180a:	c7 04 24 2e 00 00 00 	movl   $0x2e,(%esp)
  101811:	89 4c 24 04          	mov    %ecx,0x4(%esp)
  101815:	c7 44 24 08 08 00 00 	movl   $0x8,0x8(%esp)
  10181c:	00 
  10181d:	c7 44 24 0c 8e 00 00 	movl   $0x8e,0xc(%esp)
  101824:	00 
  101825:	89 85 10 fe ff ff    	mov    %eax,-0x1f0(%ebp)
  10182b:	89 b5 0c fe ff ff    	mov    %esi,-0x1f4(%ebp)
  101831:	89 95 08 fe ff ff    	mov    %edx,-0x1f8(%ebp)
  101837:	e8 24 f4 ff ff       	call   100c60 <idt_set_entry>
  10183c:	b8 2f 00 00 00       	mov    $0x2f,%eax
  101841:	8d 0d ec 1b 10 00    	lea    0x101bec,%ecx
  101847:	ba 08 00 00 00       	mov    $0x8,%edx
  10184c:	be 8e 00 00 00       	mov    $0x8e,%esi
			IDT_FLAG_INTERRUPT_GATE | IDT_FLAG_RING0 | IDT_FLAG_PRESENT);
	idt_set_entry(47, intr_stub_47, 0x8,
  101851:	c7 04 24 2f 00 00 00 	movl   $0x2f,(%esp)
  101858:	89 4c 24 04          	mov    %ecx,0x4(%esp)
  10185c:	c7 44 24 08 08 00 00 	movl   $0x8,0x8(%esp)
  101863:	00 
  101864:	c7 44 24 0c 8e 00 00 	movl   $0x8e,0xc(%esp)
  10186b:	00 
  10186c:	89 85 04 fe ff ff    	mov    %eax,-0x1fc(%ebp)
  101872:	89 b5 00 fe ff ff    	mov    %esi,-0x200(%ebp)
  101878:	89 95 fc fd ff ff    	mov    %edx,-0x204(%ebp)
  10187e:	e8 dd f3 ff ff       	call   100c60 <idt_set_entry>
  101883:	b8 30 00 00 00       	mov    $0x30,%eax
  101888:	8d 0d f2 1b 10 00    	lea    0x101bf2,%ecx
  10188e:	ba 08 00 00 00       	mov    $0x8,%edx
  101893:	be ee 00 00 00       	mov    $0xee,%esi
			IDT_FLAG_INTERRUPT_GATE | IDT_FLAG_RING0 | IDT_FLAG_PRESENT);

	idt_set_entry(48, intr_stub_48, 0x8,
  101898:	c7 04 24 30 00 00 00 	movl   $0x30,(%esp)
  10189f:	89 4c 24 04          	mov    %ecx,0x4(%esp)
  1018a3:	c7 44 24 08 08 00 00 	movl   $0x8,0x8(%esp)
  1018aa:	00 
  1018ab:	c7 44 24 0c ee 00 00 	movl   $0xee,0xc(%esp)
  1018b2:	00 
  1018b3:	89 85 f8 fd ff ff    	mov    %eax,-0x208(%ebp)
  1018b9:	89 b5 f4 fd ff ff    	mov    %esi,-0x20c(%ebp)
  1018bf:	89 95 f0 fd ff ff    	mov    %edx,-0x210(%ebp)
  1018c5:	e8 96 f3 ff ff       	call   100c60 <idt_set_entry>
  1018ca:	b8 05 00 00 00       	mov    $0x5,%eax
  1018cf:	8d 0d 08 51 10 00    	lea    0x105108,%ecx
  1018d5:	ba 80 00 00 00       	mov    $0x80,%edx
  1018da:	be e9 00 00 00       	mov    $0xe9,%esi
			IDT_FLAG_INTERRUPT_GATE | IDT_FLAG_RING3 | IDT_FLAG_PRESENT);

	set_gdt_entry(5, (uint32_t) tss, sizeof(tss),
  1018df:	c7 04 24 05 00 00 00 	movl   $0x5,(%esp)
  1018e6:	89 4c 24 04          	mov    %ecx,0x4(%esp)
  1018ea:	c7 44 24 08 80 00 00 	movl   $0x80,0x8(%esp)
  1018f1:	00 
  1018f2:	c7 44 24 0c e9 00 00 	movl   $0xe9,0xc(%esp)
  1018f9:	00 
  1018fa:	89 85 ec fd ff ff    	mov    %eax,-0x214(%ebp)
  101900:	89 b5 e8 fd ff ff    	mov    %esi,-0x218(%ebp)
  101906:	89 95 e4 fd ff ff    	mov    %edx,-0x21c(%ebp)
  10190c:	e8 df f0 ff ff       	call   1009f0 <set_gdt_entry>
  101911:	b8 28 00 00 00       	mov    $0x28,%eax
			GDT_FLAG_TSS | GDT_FLAG_PRESENT | GDT_FLAG_RING3);

	asm volatile("ltr %%ax" : : "a" (5 << 3));
  101916:	0f 00 d8             	ltr    %ax

	asm volatile("lidt %0" : : "m" (idtp));
  101919:	0f 01 5d f0          	lidtl  -0x10(%ebp)
	asm volatile("sti");
  10191d:	fb                   	sti    
}
  10191e:	81 c4 34 02 00 00    	add    $0x234,%esp
  101924:	5e                   	pop    %esi
  101925:	5d                   	pop    %ebp
  101926:	c3                   	ret    
  101927:	66 0f 1f 84 00 00 00 	nopw   0x0(%eax,%eax,1)
  10192e:	00 00 

00101930 <outb>:

static inline void outw(uint16_t _port, uint16_t _data) {
    asm volatile ("outw %0, %1" : : "a" (_data), "Nd" (_port));
}

static inline void outb(uint16_t _port, uint8_t _data) {
  101930:	55                   	push   %ebp
  101931:	89 e5                	mov    %esp,%ebp
  101933:	50                   	push   %eax
  101934:	0f b7 45 08          	movzwl 0x8(%ebp),%eax
  101938:	66 89 c1             	mov    %ax,%cx
  10193b:	8a 55 0c             	mov    0xc(%ebp),%dl
  10193e:	66 89 4d fe          	mov    %cx,-0x2(%ebp)
  101942:	88 55 fd             	mov    %dl,-0x3(%ebp)
    asm volatile ("outb %0, %1" : : "a" (_data), "Nd" (_port));
  101945:	8a 45 fd             	mov    -0x3(%ebp),%al
  101948:	66 8b 55 fe          	mov    -0x2(%ebp),%dx
  10194c:	ee                   	out    %al,(%dx)
}
  10194d:	83 c4 04             	add    $0x4,%esp
  101950:	5d                   	pop    %ebp
  101951:	c3                   	ret    
  101952:	66 66 66 66 66 2e 0f 	data32 data32 data32 data32 nopw %cs:0x0(%eax,%eax,1)
  101959:	1f 84 00 00 00 00 00 

00101960 <register_intr_handler>:

void register_intr_handler(int i, void (*fn)()) {
  101960:	55                   	push   %ebp
  101961:	89 e5                	mov    %esp,%ebp
  101963:	83 ec 08             	sub    $0x8,%esp
  101966:	8b 45 0c             	mov    0xc(%ebp),%eax
  101969:	8b 4d 08             	mov    0x8(%ebp),%ecx
  10196c:	89 4d fc             	mov    %ecx,-0x4(%ebp)
  10196f:	89 45 f8             	mov    %eax,-0x8(%ebp)
	handlers[i] = fn;
  101972:	8b 45 f8             	mov    -0x8(%ebp),%eax
  101975:	8b 4d fc             	mov    -0x4(%ebp),%ecx
  101978:	89 04 8d 20 83 10 00 	mov    %eax,0x108320(,%ecx,4)
	handler_set[i] = 1;
  10197f:	8b 45 fc             	mov    -0x4(%ebp),%eax
  101982:	c7 04 85 20 82 10 00 	movl   $0x1,0x108220(,%eax,4)
  101989:	01 00 00 00 
}
  10198d:	83 c4 08             	add    $0x8,%esp
  101990:	5d                   	pop    %ebp
  101991:	c3                   	ret    
  101992:	66 66 66 66 66 2e 0f 	data32 data32 data32 data32 nopw %cs:0x0(%eax,%eax,1)
  101999:	1f 84 00 00 00 00 00 

001019a0 <handle_interrupt>:

struct cpu_state* handle_interrupt(struct cpu_state* cpu) {
  1019a0:	55                   	push   %ebp
  1019a1:	89 e5                	mov    %esp,%ebp
  1019a3:	83 ec 28             	sub    $0x28,%esp
  1019a6:	8b 45 08             	mov    0x8(%ebp),%eax
  1019a9:	89 45 fc             	mov    %eax,-0x4(%ebp)
	struct cpu_state* new_cpu = cpu;
  1019ac:	8b 45 fc             	mov    -0x4(%ebp),%eax
  1019af:	89 45 f8             	mov    %eax,-0x8(%ebp)

	if (cpu->intr <= 0x1f) {
  1019b2:	8b 45 fc             	mov    -0x4(%ebp),%eax
  1019b5:	81 78 1c 1f 00 00 00 	cmpl   $0x1f,0x1c(%eax)
  1019bc:	0f 87 3d 00 00 00    	ja     1019ff <handle_interrupt+0x5f>
		if (!isSchedulingEnabled()) {
  1019c2:	e8 b9 0e 00 00       	call   102880 <isSchedulingEnabled>
  1019c7:	3d 00 00 00 00       	cmp    $0x0,%eax
  1019cc:	0f 85 1a 00 00 00    	jne    1019ec <handle_interrupt+0x4c>
  1019d2:	8d 05 fd 61 10 00    	lea    0x1061fd,%eax
			show_cod(cpu, "Kernel PANIC!");
  1019d8:	8b 4d fc             	mov    -0x4(%ebp),%ecx
  1019db:	89 0c 24             	mov    %ecx,(%esp)
  1019de:	89 44 24 04          	mov    %eax,0x4(%esp)
  1019e2:	e8 89 e9 ff ff       	call   100370 <show_cod>
		} else {
  1019e7:	e9 0e 00 00 00       	jmp    1019fa <handle_interrupt+0x5a>
			schedule_exception(cpu);
  1019ec:	8b 45 fc             	mov    -0x4(%ebp),%eax
  1019ef:	89 04 24             	mov    %eax,(%esp)
  1019f2:	e8 a9 0e 00 00       	call   1028a0 <schedule_exception>
  1019f7:	89 45 f4             	mov    %eax,-0xc(%ebp)
		}
	} else if (cpu->intr >= 0x20 && cpu->intr <= 0x2f) {
  1019fa:	e9 fc 00 00 00       	jmp    101afb <handle_interrupt+0x15b>
  1019ff:	8b 45 fc             	mov    -0x4(%ebp),%eax
  101a02:	81 78 1c 20 00 00 00 	cmpl   $0x20,0x1c(%eax)
  101a09:	0f 82 a7 00 00 00    	jb     101ab6 <handle_interrupt+0x116>
  101a0f:	8b 45 fc             	mov    -0x4(%ebp),%eax
  101a12:	81 78 1c 2f 00 00 00 	cmpl   $0x2f,0x1c(%eax)
  101a19:	0f 87 97 00 00 00    	ja     101ab6 <handle_interrupt+0x116>
		if (cpu->intr >= 0x28) {
  101a1f:	8b 45 fc             	mov    -0x4(%ebp),%eax
  101a22:	81 78 1c 28 00 00 00 	cmpl   $0x28,0x1c(%eax)
  101a29:	0f 82 24 00 00 00    	jb     101a53 <handle_interrupt+0xb3>
  101a2f:	b8 a0 00 00 00       	mov    $0xa0,%eax
  101a34:	b9 20 00 00 00       	mov    $0x20,%ecx
			outb(0xa0, 0x20);
  101a39:	c7 04 24 a0 00 00 00 	movl   $0xa0,(%esp)
  101a40:	c7 44 24 04 20 00 00 	movl   $0x20,0x4(%esp)
  101a47:	00 
  101a48:	89 45 f0             	mov    %eax,-0x10(%ebp)
  101a4b:	89 4d ec             	mov    %ecx,-0x14(%ebp)
  101a4e:	e8 dd fe ff ff       	call   101930 <outb>
		}
		if (cpu->intr == 0x20) {
  101a53:	8b 45 fc             	mov    -0x4(%ebp),%eax
  101a56:	81 78 1c 20 00 00 00 	cmpl   $0x20,0x1c(%eax)
  101a5d:	0f 85 0e 00 00 00    	jne    101a71 <handle_interrupt+0xd1>
			new_cpu = schedule(cpu);
  101a63:	8b 45 fc             	mov    -0x4(%ebp),%eax
  101a66:	89 04 24             	mov    %eax,(%esp)
  101a69:	e8 62 12 00 00       	call   102cd0 <schedule>
  101a6e:	89 45 f8             	mov    %eax,-0x8(%ebp)
  101a71:	b8 20 00 00 00       	mov    $0x20,%eax
		}
		outb(0x20, 0x20);
  101a76:	c7 04 24 20 00 00 00 	movl   $0x20,(%esp)
  101a7d:	c7 44 24 04 20 00 00 	movl   $0x20,0x4(%esp)
  101a84:	00 
  101a85:	89 45 e8             	mov    %eax,-0x18(%ebp)
  101a88:	e8 a3 fe ff ff       	call   101930 <outb>
		if (handler_set[cpu->intr]) {
  101a8d:	8b 45 fc             	mov    -0x4(%ebp),%eax
  101a90:	8b 40 1c             	mov    0x1c(%eax),%eax
  101a93:	81 3c 85 20 82 10 00 	cmpl   $0x0,0x108220(,%eax,4)
  101a9a:	00 00 00 00 
  101a9e:	0f 84 0d 00 00 00    	je     101ab1 <handle_interrupt+0x111>
			handlers[cpu->intr]();
  101aa4:	8b 45 fc             	mov    -0x4(%ebp),%eax
  101aa7:	8b 40 1c             	mov    0x1c(%eax),%eax
  101aaa:	ff 14 85 20 83 10 00 	call   *0x108320(,%eax,4)
		}
	} else if (cpu->intr == 0x30) {
  101ab1:	e9 40 00 00 00       	jmp    101af6 <handle_interrupt+0x156>
  101ab6:	8b 45 fc             	mov    -0x4(%ebp),%eax
  101ab9:	81 78 1c 30 00 00 00 	cmpl   $0x30,0x1c(%eax)
  101ac0:	0f 85 13 00 00 00    	jne    101ad9 <handle_interrupt+0x139>
		new_cpu = syscall(new_cpu);
  101ac6:	8b 45 f8             	mov    -0x8(%ebp),%eax
  101ac9:	89 04 24             	mov    %eax,(%esp)
  101acc:	e8 5f 01 00 00       	call   101c30 <syscall>
  101ad1:	89 45 f8             	mov    %eax,-0x8(%ebp)
	} else {
  101ad4:	e9 18 00 00 00       	jmp    101af1 <handle_interrupt+0x151>
  101ad9:	8d 05 0b 62 10 00    	lea    0x10620b,%eax
		kprintf("Unbekannter Interrupt\n");
  101adf:	89 04 24             	mov    %eax,(%esp)
  101ae2:	e8 69 ea ff ff       	call   100550 <kprintf>
  101ae7:	89 45 e4             	mov    %eax,-0x1c(%ebp)
		while (1) {
			// Prozessor anhalten
			asm volatile("cli; hlt");
  101aea:	fa                   	cli    
  101aeb:	f4                   	hlt    
		}
  101aec:	e9 f9 ff ff ff       	jmp    101aea <handle_interrupt+0x14a>
  101af1:	e9 00 00 00 00       	jmp    101af6 <handle_interrupt+0x156>
  101af6:	e9 00 00 00 00       	jmp    101afb <handle_interrupt+0x15b>
	}

	return new_cpu;
  101afb:	8b 45 f8             	mov    -0x8(%ebp),%eax
  101afe:	83 c4 28             	add    $0x28,%esp
  101b01:	5d                   	pop    %ebp
  101b02:	c3                   	ret    
  101b03:	90                   	nop

00101b04 <intr_stub_0>:
  101b04:	6a 00                	push   $0x0
  101b06:	6a 00                	push   $0x0
  101b08:	e9 eb 00 00 00       	jmp    101bf8 <intr_common_handler>

00101b0d <intr_stub_1>:
  101b0d:	6a 00                	push   $0x0
  101b0f:	6a 01                	push   $0x1
  101b11:	e9 e2 00 00 00       	jmp    101bf8 <intr_common_handler>

00101b16 <intr_stub_2>:
  101b16:	6a 00                	push   $0x0
  101b18:	6a 02                	push   $0x2
  101b1a:	e9 d9 00 00 00       	jmp    101bf8 <intr_common_handler>

00101b1f <intr_stub_3>:
  101b1f:	6a 00                	push   $0x0
  101b21:	6a 03                	push   $0x3
  101b23:	e9 d0 00 00 00       	jmp    101bf8 <intr_common_handler>

00101b28 <intr_stub_4>:
  101b28:	6a 00                	push   $0x0
  101b2a:	6a 04                	push   $0x4
  101b2c:	e9 c7 00 00 00       	jmp    101bf8 <intr_common_handler>

00101b31 <intr_stub_5>:
  101b31:	6a 00                	push   $0x0
  101b33:	6a 05                	push   $0x5
  101b35:	e9 be 00 00 00       	jmp    101bf8 <intr_common_handler>

00101b3a <intr_stub_6>:
  101b3a:	6a 00                	push   $0x0
  101b3c:	6a 06                	push   $0x6
  101b3e:	e9 b5 00 00 00       	jmp    101bf8 <intr_common_handler>

00101b43 <intr_stub_7>:
  101b43:	6a 00                	push   $0x0
  101b45:	6a 07                	push   $0x7
  101b47:	e9 ac 00 00 00       	jmp    101bf8 <intr_common_handler>

00101b4c <intr_stub_8>:
  101b4c:	6a 08                	push   $0x8
  101b4e:	e9 a5 00 00 00       	jmp    101bf8 <intr_common_handler>

00101b53 <intr_stub_9>:
  101b53:	6a 00                	push   $0x0
  101b55:	6a 09                	push   $0x9
  101b57:	e9 9c 00 00 00       	jmp    101bf8 <intr_common_handler>

00101b5c <intr_stub_10>:
  101b5c:	6a 0a                	push   $0xa
  101b5e:	e9 95 00 00 00       	jmp    101bf8 <intr_common_handler>

00101b63 <intr_stub_11>:
  101b63:	6a 0b                	push   $0xb
  101b65:	e9 8e 00 00 00       	jmp    101bf8 <intr_common_handler>

00101b6a <intr_stub_12>:
  101b6a:	6a 0c                	push   $0xc
  101b6c:	e9 87 00 00 00       	jmp    101bf8 <intr_common_handler>

00101b71 <intr_stub_13>:
  101b71:	6a 0d                	push   $0xd
  101b73:	e9 80 00 00 00       	jmp    101bf8 <intr_common_handler>

00101b78 <intr_stub_14>:
  101b78:	6a 0e                	push   $0xe
  101b7a:	eb 7c                	jmp    101bf8 <intr_common_handler>

00101b7c <intr_stub_15>:
  101b7c:	6a 00                	push   $0x0
  101b7e:	6a 0f                	push   $0xf
  101b80:	eb 76                	jmp    101bf8 <intr_common_handler>

00101b82 <intr_stub_16>:
  101b82:	6a 00                	push   $0x0
  101b84:	6a 10                	push   $0x10
  101b86:	eb 70                	jmp    101bf8 <intr_common_handler>

00101b88 <intr_stub_17>:
  101b88:	6a 11                	push   $0x11
  101b8a:	eb 6c                	jmp    101bf8 <intr_common_handler>

00101b8c <intr_stub_18>:
  101b8c:	6a 00                	push   $0x0
  101b8e:	6a 12                	push   $0x12
  101b90:	eb 66                	jmp    101bf8 <intr_common_handler>

00101b92 <intr_stub_32>:
  101b92:	6a 00                	push   $0x0
  101b94:	6a 20                	push   $0x20
  101b96:	eb 60                	jmp    101bf8 <intr_common_handler>

00101b98 <intr_stub_33>:
  101b98:	6a 00                	push   $0x0
  101b9a:	6a 21                	push   $0x21
  101b9c:	eb 5a                	jmp    101bf8 <intr_common_handler>

00101b9e <intr_stub_34>:
  101b9e:	6a 00                	push   $0x0
  101ba0:	6a 22                	push   $0x22
  101ba2:	eb 54                	jmp    101bf8 <intr_common_handler>

00101ba4 <intr_stub_35>:
  101ba4:	6a 00                	push   $0x0
  101ba6:	6a 23                	push   $0x23
  101ba8:	eb 4e                	jmp    101bf8 <intr_common_handler>

00101baa <intr_stub_36>:
  101baa:	6a 00                	push   $0x0
  101bac:	6a 24                	push   $0x24
  101bae:	eb 48                	jmp    101bf8 <intr_common_handler>

00101bb0 <intr_stub_37>:
  101bb0:	6a 00                	push   $0x0
  101bb2:	6a 25                	push   $0x25
  101bb4:	eb 42                	jmp    101bf8 <intr_common_handler>

00101bb6 <intr_stub_38>:
  101bb6:	6a 00                	push   $0x0
  101bb8:	6a 26                	push   $0x26
  101bba:	eb 3c                	jmp    101bf8 <intr_common_handler>

00101bbc <intr_stub_39>:
  101bbc:	6a 00                	push   $0x0
  101bbe:	6a 27                	push   $0x27
  101bc0:	eb 36                	jmp    101bf8 <intr_common_handler>

00101bc2 <intr_stub_40>:
  101bc2:	6a 00                	push   $0x0
  101bc4:	6a 28                	push   $0x28
  101bc6:	eb 30                	jmp    101bf8 <intr_common_handler>

00101bc8 <intr_stub_41>:
  101bc8:	6a 00                	push   $0x0
  101bca:	6a 29                	push   $0x29
  101bcc:	eb 2a                	jmp    101bf8 <intr_common_handler>

00101bce <intr_stub_42>:
  101bce:	6a 00                	push   $0x0
  101bd0:	6a 2a                	push   $0x2a
  101bd2:	eb 24                	jmp    101bf8 <intr_common_handler>

00101bd4 <intr_stub_43>:
  101bd4:	6a 00                	push   $0x0
  101bd6:	6a 2b                	push   $0x2b
  101bd8:	eb 1e                	jmp    101bf8 <intr_common_handler>

00101bda <intr_stub_44>:
  101bda:	6a 00                	push   $0x0
  101bdc:	6a 2c                	push   $0x2c
  101bde:	eb 18                	jmp    101bf8 <intr_common_handler>

00101be0 <intr_stub_45>:
  101be0:	6a 00                	push   $0x0
  101be2:	6a 2d                	push   $0x2d
  101be4:	eb 12                	jmp    101bf8 <intr_common_handler>

00101be6 <intr_stub_46>:
  101be6:	6a 00                	push   $0x0
  101be8:	6a 2e                	push   $0x2e
  101bea:	eb 0c                	jmp    101bf8 <intr_common_handler>

00101bec <intr_stub_47>:
  101bec:	6a 00                	push   $0x0
  101bee:	6a 2f                	push   $0x2f
  101bf0:	eb 06                	jmp    101bf8 <intr_common_handler>

00101bf2 <intr_stub_48>:
  101bf2:	6a 00                	push   $0x0
  101bf4:	6a 30                	push   $0x30
  101bf6:	eb 00                	jmp    101bf8 <intr_common_handler>

00101bf8 <intr_common_handler>:
  101bf8:	55                   	push   %ebp
  101bf9:	57                   	push   %edi
  101bfa:	56                   	push   %esi
  101bfb:	52                   	push   %edx
  101bfc:	51                   	push   %ecx
  101bfd:	53                   	push   %ebx
  101bfe:	50                   	push   %eax
  101bff:	54                   	push   %esp
  101c00:	66 b8 10 00          	mov    $0x10,%ax
  101c04:	66 8e d8             	mov    %ax,%ds
  101c07:	66 8e c0             	mov    %ax,%es
  101c0a:	e8 91 fd ff ff       	call   1019a0 <handle_interrupt>
  101c0f:	89 c4                	mov    %eax,%esp
  101c11:	66 b8 23 00          	mov    $0x23,%ax
  101c15:	66 8e d8             	mov    %ax,%ds
  101c18:	66 8e c0             	mov    %ax,%es
  101c1b:	58                   	pop    %eax
  101c1c:	5b                   	pop    %ebx
  101c1d:	59                   	pop    %ecx
  101c1e:	5a                   	pop    %edx
  101c1f:	5e                   	pop    %esi
  101c20:	5f                   	pop    %edi
  101c21:	5d                   	pop    %ebp
  101c22:	83 c4 08             	add    $0x8,%esp
  101c25:	cf                   	iret   
  101c26:	66 90                	xchg   %ax,%ax
  101c28:	66 90                	xchg   %ax,%ax
  101c2a:	66 90                	xchg   %ax,%ax
  101c2c:	66 90                	xchg   %ax,%ax
  101c2e:	66 90                	xchg   %ax,%ax

00101c30 <syscall>:
#include "kernel.h"
#include "vfs.h"
#include "ramfs/fifo.h"

struct cpu_state* syscall(struct cpu_state* cpu) {
  101c30:	55                   	push   %ebp
  101c31:	89 e5                	mov    %esp,%ebp
  101c33:	83 ec 38             	sub    $0x38,%esp
  101c36:	8b 45 08             	mov    0x8(%ebp),%eax
  101c39:	89 45 fc             	mov    %eax,-0x4(%ebp)
	switch (cpu->eax) {
  101c3c:	8b 00                	mov    (%eax),%eax
  101c3e:	89 c1                	mov    %eax,%ecx
  101c40:	81 e9 c8 00 00 00    	sub    $0xc8,%ecx
  101c46:	89 45 f0             	mov    %eax,-0x10(%ebp)
  101c49:	89 4d ec             	mov    %ecx,-0x14(%ebp)
  101c4c:	0f 8f 2d 00 00 00    	jg     101c7f <syscall+0x4f>
  101c52:	e9 00 00 00 00       	jmp    101c57 <syscall+0x27>
  101c57:	8b 45 f0             	mov    -0x10(%ebp),%eax
  101c5a:	83 e8 01             	sub    $0x1,%eax
  101c5d:	89 45 e8             	mov    %eax,-0x18(%ebp)
  101c60:	0f 84 3e 00 00 00    	je     101ca4 <syscall+0x74>
  101c66:	e9 00 00 00 00       	jmp    101c6b <syscall+0x3b>
  101c6b:	8b 45 f0             	mov    -0x10(%ebp),%eax
  101c6e:	83 e8 02             	sub    $0x2,%eax
  101c71:	89 45 e4             	mov    %eax,-0x1c(%ebp)
  101c74:	0f 84 3d 00 00 00    	je     101cb7 <syscall+0x87>
  101c7a:	e9 15 01 00 00       	jmp    101d94 <syscall+0x164>
  101c7f:	8b 45 f0             	mov    -0x10(%ebp),%eax
  101c82:	05 37 ff ff ff       	add    $0xffffff37,%eax
  101c87:	89 c1                	mov    %eax,%ecx
  101c89:	83 e9 04             	sub    $0x4,%ecx
  101c8c:	89 45 e0             	mov    %eax,-0x20(%ebp)
  101c8f:	89 4d dc             	mov    %ecx,-0x24(%ebp)
  101c92:	0f 87 fc 00 00 00    	ja     101d94 <syscall+0x164>
  101c98:	8b 45 e0             	mov    -0x20(%ebp),%eax
  101c9b:	8b 0c 85 30 60 10 00 	mov    0x106030(,%eax,4),%ecx
  101ca2:	ff e1                	jmp    *%ecx
	case 1: /* exit */
		cpu = terminate_current(cpu);
  101ca4:	8b 45 fc             	mov    -0x4(%ebp),%eax
  101ca7:	89 04 24             	mov    %eax,(%esp)
  101caa:	e8 21 0d 00 00       	call   1029d0 <terminate_current>
  101caf:	89 45 fc             	mov    %eax,-0x4(%ebp)
		break;
  101cb2:	e9 f7 00 00 00       	jmp    101dae <syscall+0x17e>

	case 2: /* fork */
	{
		save_cpu_state(cpu);
  101cb7:	8b 45 fc             	mov    -0x4(%ebp),%eax
  101cba:	89 04 24             	mov    %eax,(%esp)
  101cbd:	e8 ce 0f 00 00       	call   102c90 <save_cpu_state>

		uint32_t forkpdir = vmm_fork_current();
  101cc2:	e8 89 23 00 00       	call   104050 <vmm_fork_current>
  101cc7:	b9 00 00 00 00       	mov    $0x0,%ecx
  101ccc:	89 45 f8             	mov    %eax,-0x8(%ebp)

		struct task* ntask = init_task(forkpdir, 0);
  101ccf:	8b 45 f8             	mov    -0x8(%ebp),%eax
  101cd2:	89 04 24             	mov    %eax,(%esp)
  101cd5:	c7 44 24 04 00 00 00 	movl   $0x0,0x4(%esp)
  101cdc:	00 
  101cdd:	89 4d d8             	mov    %ecx,-0x28(%ebp)
  101ce0:	e8 fb 0d 00 00       	call   102ae0 <init_task>
  101ce5:	89 45 f4             	mov    %eax,-0xc(%ebp)
		fork_task_state(ntask);
  101ce8:	8b 45 f4             	mov    -0xc(%ebp),%eax
  101ceb:	89 04 24             	mov    %eax,(%esp)
  101cee:	e8 8d 0d 00 00       	call   102a80 <fork_task_state>

		cpu->eax = ntask->PID;
  101cf3:	8b 45 f4             	mov    -0xc(%ebp),%eax
  101cf6:	8b 00                	mov    (%eax),%eax
  101cf8:	8b 4d fc             	mov    -0x4(%ebp),%ecx
  101cfb:	89 01                	mov    %eax,(%ecx)
	}
		break;
  101cfd:	e9 ac 00 00 00       	jmp    101dae <syscall+0x17e>
  101d02:	8d 05 22 62 10 00    	lea    0x106222,%eax

	case 201: /* putc */
		cpu->eax = kprintf("%c", cpu->ebx);
  101d08:	8b 4d fc             	mov    -0x4(%ebp),%ecx
  101d0b:	8b 49 04             	mov    0x4(%ecx),%ecx
  101d0e:	89 04 24             	mov    %eax,(%esp)
  101d11:	89 4c 24 04          	mov    %ecx,0x4(%esp)
  101d15:	e8 36 e8 ff ff       	call   100550 <kprintf>
  101d1a:	8b 4d fc             	mov    -0x4(%ebp),%ecx
  101d1d:	89 01                	mov    %eax,(%ecx)
		break;
  101d1f:	e9 8a 00 00 00       	jmp    101dae <syscall+0x17e>
  101d24:	8d 05 25 62 10 00    	lea    0x106225,%eax
	case 202: /* puts */
		cpu->eax = kprintf("%s", cpu->ebx);
  101d2a:	8b 4d fc             	mov    -0x4(%ebp),%ecx
  101d2d:	8b 49 04             	mov    0x4(%ecx),%ecx
  101d30:	89 04 24             	mov    %eax,(%esp)
  101d33:	89 4c 24 04          	mov    %ecx,0x4(%esp)
  101d37:	e8 14 e8 ff ff       	call   100550 <kprintf>
  101d3c:	8b 4d fc             	mov    -0x4(%ebp),%ecx
  101d3f:	89 01                	mov    %eax,(%ecx)
		break;
  101d41:	e9 68 00 00 00       	jmp    101dae <syscall+0x17e>
	case 203: /* vmm_alloc_ucont */
		cpu->eax = (uint32_t) vmm_alloc_ucont(cpu->ebx);
  101d46:	8b 45 fc             	mov    -0x4(%ebp),%eax
  101d49:	8b 40 04             	mov    0x4(%eax),%eax
  101d4c:	89 04 24             	mov    %eax,(%esp)
  101d4f:	e8 4c 2b 00 00       	call   1048a0 <vmm_alloc_ucont>
  101d54:	8b 4d fc             	mov    -0x4(%ebp),%ecx
  101d57:	89 01                	mov    %eax,(%ecx)
		break;
  101d59:	e9 50 00 00 00       	jmp    101dae <syscall+0x17e>
	case 204: /* vmm_free */
		cpu->eax = 0;
  101d5e:	8b 45 fc             	mov    -0x4(%ebp),%eax
  101d61:	c7 00 00 00 00 00    	movl   $0x0,(%eax)
		if (cpu->ebx >= PROGRAM_BOTTOM) { //Only in PROGRAM AREA ;)
  101d67:	8b 45 fc             	mov    -0x4(%ebp),%eax
  101d6a:	81 78 04 00 10 40 20 	cmpl   $0x20401000,0x4(%eax)
  101d71:	0f 82 0e 00 00 00    	jb     101d85 <syscall+0x155>
			vmm_free((void*) cpu->ebx);
  101d77:	8b 45 fc             	mov    -0x4(%ebp),%eax
  101d7a:	8b 40 04             	mov    0x4(%eax),%eax
  101d7d:	89 04 24             	mov    %eax,(%esp)
  101d80:	e8 8b 29 00 00       	call   104710 <vmm_free>
		}
		break;
  101d85:	e9 24 00 00 00       	jmp    101dae <syscall+0x17e>
	case 205: /* pmm_print_stats */
		pmm_print_stats();
  101d8a:	e8 f1 01 00 00       	call   101f80 <pmm_print_stats>
		break;
  101d8f:	e9 1a 00 00 00       	jmp    101dae <syscall+0x17e>
  101d94:	8d 05 28 62 10 00    	lea    0x106228,%eax
	default:
		kprintf("Invalid Syscall %d...", cpu->eax);
  101d9a:	8b 4d fc             	mov    -0x4(%ebp),%ecx
  101d9d:	8b 09                	mov    (%ecx),%ecx
  101d9f:	89 04 24             	mov    %eax,(%esp)
  101da2:	89 4c 24 04          	mov    %ecx,0x4(%esp)
  101da6:	e8 a5 e7 ff ff       	call   100550 <kprintf>
  101dab:	89 45 d4             	mov    %eax,-0x2c(%ebp)
		break;
	}

	return cpu;
  101dae:	8b 45 fc             	mov    -0x4(%ebp),%eax
  101db1:	83 c4 38             	add    $0x38,%esp
  101db4:	5d                   	pop    %ebp
  101db5:	c3                   	ret    
  101db6:	66 2e 0f 1f 84 00 00 	nopw   %cs:0x0(%eax,%eax,1)
  101dbd:	00 00 00 

00101dc0 <kernel_main>:
}

void kernel_main(struct multiboot_info* mb_info) {
  101dc0:	55                   	push   %ebp
  101dc1:	89 e5                	mov    %esp,%ebp
  101dc3:	83 ec 48             	sub    $0x48,%esp
  101dc6:	8b 45 08             	mov    0x8(%ebp),%eax
  101dc9:	89 45 fc             	mov    %eax,-0x4(%ebp)
	uint32_t kernel_init_pdir = vmm_init();
  101dcc:	e8 cf 2d 00 00       	call   104ba0 <vmm_init>
  101dd1:	8d 0d 3e 62 10 00    	lea    0x10623e,%ecx
  101dd7:	89 45 f8             	mov    %eax,-0x8(%ebp)

    kprintf("Initializing vfs...\n");
  101dda:	89 0c 24             	mov    %ecx,(%esp)
  101ddd:	e8 6e e7 ff ff       	call   100550 <kprintf>

    vfs_init_root();
  101de2:	89 45 f0             	mov    %eax,-0x10(%ebp)
  101de5:	e8 c6 1f 00 00       	call   103db0 <vfs_init_root>
  101dea:	8d 05 53 62 10 00    	lea    0x106253,%eax
  101df0:	8d 4d f4             	lea    -0xc(%ebp),%ecx
    ramfs_fifo_init();
  101df3:	89 45 ec             	mov    %eax,-0x14(%ebp)
  101df6:	89 4d e8             	mov    %ecx,-0x18(%ebp)
  101df9:	e8 62 05 00 00       	call   102360 <ramfs_fifo_init>

    uint32_t size = 4096;
  101dfe:	c7 45 f4 00 10 00 00 	movl   $0x1000,-0xc(%ebp)

    vfs_create_kfile("/dev/ktty", ramfs_fifo_driver_struct(), &size);
  101e05:	e8 56 0a 00 00       	call   102860 <ramfs_fifo_driver_struct>
  101e0a:	8b 4d ec             	mov    -0x14(%ebp),%ecx
  101e0d:	89 0c 24             	mov    %ecx,(%esp)
  101e10:	89 44 24 04          	mov    %eax,0x4(%esp)
  101e14:	8b 45 e8             	mov    -0x18(%ebp),%eax
  101e17:	89 44 24 08          	mov    %eax,0x8(%esp)
  101e1b:	e8 50 1c 00 00       	call   103a70 <vfs_create_kfile>
  101e20:	8d 0d 5d 62 10 00    	lea    0x10625d,%ecx
    vfs_create_dir("/dev/drives");
  101e26:	89 0c 24             	mov    %ecx,(%esp)
  101e29:	89 45 e4             	mov    %eax,-0x1c(%ebp)
  101e2c:	e8 7f 1a 00 00       	call   1038b0 <vfs_create_dir>
  101e31:	8d 0d 69 62 10 00    	lea    0x106269,%ecx
    vfs_create_dir("/dev/ports");
  101e37:	89 0c 24             	mov    %ecx,(%esp)
  101e3a:	89 45 e0             	mov    %eax,-0x20(%ebp)
  101e3d:	e8 6e 1a 00 00       	call   1038b0 <vfs_create_dir>
  101e42:	8d 0d 74 62 10 00    	lea    0x106274,%ecx
    vfs_create_dir("/dev/cpu");
  101e48:	89 0c 24             	mov    %ecx,(%esp)
  101e4b:	89 45 dc             	mov    %eax,-0x24(%ebp)
  101e4e:	e8 5d 1a 00 00       	call   1038b0 <vfs_create_dir>
  101e53:	8d 0d 7d 62 10 00    	lea    0x10627d,%ecx
    vfs_create_dir("/dev/memory");
  101e59:	89 0c 24             	mov    %ecx,(%esp)
  101e5c:	89 45 d8             	mov    %eax,-0x28(%ebp)
  101e5f:	e8 4c 1a 00 00       	call   1038b0 <vfs_create_dir>
  101e64:	8d 0d 89 62 10 00    	lea    0x106289,%ecx
    vfs_create_dir("/dev/audio");
  101e6a:	89 0c 24             	mov    %ecx,(%esp)
  101e6d:	89 45 d4             	mov    %eax,-0x2c(%ebp)
  101e70:	e8 3b 1a 00 00       	call   1038b0 <vfs_create_dir>
  101e75:	8d 0d 94 62 10 00    	lea    0x106294,%ecx

    vfs_debug_ls("/dev");
  101e7b:	89 0c 24             	mov    %ecx,(%esp)
  101e7e:	89 45 d0             	mov    %eax,-0x30(%ebp)
  101e81:	e8 ba 1f 00 00       	call   103e40 <vfs_debug_ls>

	while(1);
  101e86:	e9 fb ff ff ff       	jmp    101e86 <kernel_main+0xc6>
  101e8b:	66 90                	xchg   %ax,%ax
  101e8d:	66 90                	xchg   %ax,%ax
  101e8f:	90                   	nop

00101e90 <pmm_alloc>:
#define BITMAP_SIZE 32768

uint32_t allocatable[BITMAP_SIZE];
uint32_t upper_limit = 0;

void* pmm_alloc() {
  101e90:	55                   	push   %ebp
  101e91:	89 e5                	mov    %esp,%ebp
	int i;
	for (i = 0; i < BITMAP_SIZE; i++) {
  101e93:	56                   	push   %esi
  101e94:	83 ec 10             	sub    $0x10,%esp
  101e97:	c7 45 f4 00 00 00 00 	movl   $0x0,-0xc(%ebp)
  101e9e:	81 7d f4 00 80 00 00 	cmpl   $0x8000,-0xc(%ebp)
  101ea5:	0f 8d b7 00 00 00    	jge    101f62 <pmm_alloc+0xd2>
		if (allocatable[i]) {
  101eab:	8b 45 f4             	mov    -0xc(%ebp),%eax
  101eae:	81 3c 85 88 c4 10 00 	cmpl   $0x0,0x10c488(,%eax,4)
  101eb5:	00 00 00 00 
  101eb9:	0f 84 8e 00 00 00    	je     101f4d <pmm_alloc+0xbd>
			int s;
			for (s = 0; s < 32; s++) {
  101ebf:	c7 45 f0 00 00 00 00 	movl   $0x0,-0x10(%ebp)
  101ec6:	81 7d f0 20 00 00 00 	cmpl   $0x20,-0x10(%ebp)
  101ecd:	0f 8d 75 00 00 00    	jge    101f48 <pmm_alloc+0xb8>
  101ed3:	b8 01 00 00 00       	mov    $0x1,%eax
				if (allocatable[i] & (1 << s)) {
  101ed8:	8b 4d f4             	mov    -0xc(%ebp),%ecx
  101edb:	8b 0c 8d 88 c4 10 00 	mov    0x10c488(,%ecx,4),%ecx
  101ee2:	8b 55 f0             	mov    -0x10(%ebp),%edx
  101ee5:	89 4d ec             	mov    %ecx,-0x14(%ebp)
  101ee8:	89 d1                	mov    %edx,%ecx
  101eea:	d3 e0                	shl    %cl,%eax
  101eec:	8b 55 ec             	mov    -0x14(%ebp),%edx
  101eef:	21 c2                	and    %eax,%edx
  101ef1:	81 fa 00 00 00 00    	cmp    $0x0,%edx
  101ef7:	0f 84 36 00 00 00    	je     101f33 <pmm_alloc+0xa3>
  101efd:	b8 01 00 00 00       	mov    $0x1,%eax
					allocatable[i] &= ~(1 << s);
  101f02:	8b 4d f0             	mov    -0x10(%ebp),%ecx
  101f05:	d3 e0                	shl    %cl,%eax
  101f07:	35 ff ff ff ff       	xor    $0xffffffff,%eax
  101f0c:	8b 55 f4             	mov    -0xc(%ebp),%edx
  101f0f:	8b 34 95 88 c4 10 00 	mov    0x10c488(,%edx,4),%esi
  101f16:	21 c6                	and    %eax,%esi
  101f18:	89 34 95 88 c4 10 00 	mov    %esi,0x10c488(,%edx,4)
					return (uint8_t*) ((i * 32 + s) * 4096);
  101f1f:	8b 45 f4             	mov    -0xc(%ebp),%eax
  101f22:	c1 e0 05             	shl    $0x5,%eax
  101f25:	03 45 f0             	add    -0x10(%ebp),%eax
  101f28:	c1 e0 0c             	shl    $0xc,%eax
  101f2b:	89 45 f8             	mov    %eax,-0x8(%ebp)
  101f2e:	e9 36 00 00 00       	jmp    101f69 <pmm_alloc+0xd9>
				}
			}
  101f33:	e9 00 00 00 00       	jmp    101f38 <pmm_alloc+0xa8>
void* pmm_alloc() {
	int i;
	for (i = 0; i < BITMAP_SIZE; i++) {
		if (allocatable[i]) {
			int s;
			for (s = 0; s < 32; s++) {
  101f38:	8b 45 f0             	mov    -0x10(%ebp),%eax
  101f3b:	05 01 00 00 00       	add    $0x1,%eax
  101f40:	89 45 f0             	mov    %eax,-0x10(%ebp)
  101f43:	e9 7e ff ff ff       	jmp    101ec6 <pmm_alloc+0x36>
				if (allocatable[i] & (1 << s)) {
					allocatable[i] &= ~(1 << s);
					return (uint8_t*) ((i * 32 + s) * 4096);
				}
			}
		}
  101f48:	e9 00 00 00 00       	jmp    101f4d <pmm_alloc+0xbd>
	}
  101f4d:	e9 00 00 00 00       	jmp    101f52 <pmm_alloc+0xc2>
uint32_t allocatable[BITMAP_SIZE];
uint32_t upper_limit = 0;

void* pmm_alloc() {
	int i;
	for (i = 0; i < BITMAP_SIZE; i++) {
  101f52:	8b 45 f4             	mov    -0xc(%ebp),%eax
  101f55:	05 01 00 00 00       	add    $0x1,%eax
  101f5a:	89 45 f4             	mov    %eax,-0xc(%ebp)
  101f5d:	e9 3c ff ff ff       	jmp    101e9e <pmm_alloc+0xe>
					return (uint8_t*) ((i * 32 + s) * 4096);
				}
			}
		}
	}
	return NULL ;
  101f62:	c7 45 f8 00 00 00 00 	movl   $0x0,-0x8(%ebp)
}
  101f69:	8b 45 f8             	mov    -0x8(%ebp),%eax
  101f6c:	83 c4 10             	add    $0x10,%esp
  101f6f:	5e                   	pop    %esi
  101f70:	5d                   	pop    %ebp
  101f71:	c3                   	ret    
  101f72:	66 66 66 66 66 2e 0f 	data32 data32 data32 data32 nopw %cs:0x0(%eax,%eax,1)
  101f79:	1f 84 00 00 00 00 00 

00101f80 <pmm_print_stats>:

void pmm_print_stats() {
  101f80:	55                   	push   %ebp
  101f81:	89 e5                	mov    %esp,%ebp
  101f83:	56                   	push   %esi
  101f84:	83 ec 34             	sub    $0x34,%esp
  101f87:	b8 00 00 10 00       	mov    $0x100000,%eax
	kprintf("Running mikrOS with %dMB/%dMB (%dkB/%dkB) available memory!\n",
			pmm_get_free_space(1024 * 1024), upper_limit / (1024 * 1024),
  101f8c:	c7 04 24 00 00 10 00 	movl   $0x100000,(%esp)
  101f93:	89 45 f8             	mov    %eax,-0x8(%ebp)
  101f96:	e8 65 00 00 00       	call   102000 <pmm_get_free_space>
  101f9b:	b9 00 04 00 00       	mov    $0x400,%ecx
	}
	return NULL ;
}

void pmm_print_stats() {
	kprintf("Running mikrOS with %dMB/%dMB (%dkB/%dkB) available memory!\n",
  101fa0:	8b 15 20 84 10 00    	mov    0x108420,%edx
  101fa6:	c1 ea 14             	shr    $0x14,%edx
			pmm_get_free_space(1024 * 1024), upper_limit / (1024 * 1024),
			pmm_get_free_space(1024), upper_limit / 1024);
  101fa9:	c7 04 24 00 04 00 00 	movl   $0x400,(%esp)
  101fb0:	89 45 f4             	mov    %eax,-0xc(%ebp)
  101fb3:	89 4d f0             	mov    %ecx,-0x10(%ebp)
  101fb6:	89 55 ec             	mov    %edx,-0x14(%ebp)
  101fb9:	e8 42 00 00 00       	call   102000 <pmm_get_free_space>
  101fbe:	8d 0d 99 62 10 00    	lea    0x106299,%ecx
	}
	return NULL ;
}

void pmm_print_stats() {
	kprintf("Running mikrOS with %dMB/%dMB (%dkB/%dkB) available memory!\n",
  101fc4:	8b 15 20 84 10 00    	mov    0x108420,%edx
  101fca:	c1 ea 0a             	shr    $0xa,%edx
  101fcd:	89 0c 24             	mov    %ecx,(%esp)
  101fd0:	8b 4d f4             	mov    -0xc(%ebp),%ecx
  101fd3:	89 4c 24 04          	mov    %ecx,0x4(%esp)
  101fd7:	8b 75 ec             	mov    -0x14(%ebp),%esi
  101fda:	89 74 24 08          	mov    %esi,0x8(%esp)
  101fde:	89 44 24 0c          	mov    %eax,0xc(%esp)
  101fe2:	89 54 24 10          	mov    %edx,0x10(%esp)
  101fe6:	e8 65 e5 ff ff       	call   100550 <kprintf>
			pmm_get_free_space(1024 * 1024), upper_limit / (1024 * 1024),
			pmm_get_free_space(1024), upper_limit / 1024);
}
  101feb:	89 45 e8             	mov    %eax,-0x18(%ebp)
  101fee:	83 c4 34             	add    $0x34,%esp
  101ff1:	5e                   	pop    %esi
  101ff2:	5d                   	pop    %ebp
  101ff3:	c3                   	ret    
  101ff4:	66 66 66 2e 0f 1f 84 	data32 data32 nopw %cs:0x0(%eax,%eax,1)
  101ffb:	00 00 00 00 00 

00102000 <pmm_get_free_space>:

uint32_t pmm_get_free_space(uint32_t div) {
  102000:	55                   	push   %ebp
  102001:	89 e5                	mov    %esp,%ebp
  102003:	83 ec 14             	sub    $0x14,%esp
  102006:	8b 45 08             	mov    0x8(%ebp),%eax
  102009:	89 45 fc             	mov    %eax,-0x4(%ebp)
	uint32_t free = 0;
  10200c:	c7 45 f8 00 00 00 00 	movl   $0x0,-0x8(%ebp)

	for (uint32_t i = 0; i < BITMAP_SIZE; i++) {
  102013:	c7 45 f4 00 00 00 00 	movl   $0x0,-0xc(%ebp)
  10201a:	81 7d f4 00 80 00 00 	cmpl   $0x8000,-0xc(%ebp)
  102021:	0f 83 73 00 00 00    	jae    10209a <pmm_get_free_space+0x9a>
		for (uint32_t s = 0; s < 32; s++) {
  102027:	c7 45 f0 00 00 00 00 	movl   $0x0,-0x10(%ebp)
  10202e:	81 7d f0 20 00 00 00 	cmpl   $0x20,-0x10(%ebp)
  102035:	0f 83 4a 00 00 00    	jae    102085 <pmm_get_free_space+0x85>
  10203b:	b8 01 00 00 00       	mov    $0x1,%eax
			if (allocatable[i] & (1 << s))
  102040:	8b 4d f4             	mov    -0xc(%ebp),%ecx
  102043:	8b 0c 8d 88 c4 10 00 	mov    0x10c488(,%ecx,4),%ecx
  10204a:	8b 55 f0             	mov    -0x10(%ebp),%edx
  10204d:	89 4d ec             	mov    %ecx,-0x14(%ebp)
  102050:	89 d1                	mov    %edx,%ecx
  102052:	d3 e0                	shl    %cl,%eax
  102054:	8b 55 ec             	mov    -0x14(%ebp),%edx
  102057:	21 c2                	and    %eax,%edx
  102059:	81 fa 00 00 00 00    	cmp    $0x0,%edx
  10205f:	0f 84 0b 00 00 00    	je     102070 <pmm_get_free_space+0x70>
				free += 0x1000;
  102065:	8b 45 f8             	mov    -0x8(%ebp),%eax
  102068:	05 00 10 00 00       	add    $0x1000,%eax
  10206d:	89 45 f8             	mov    %eax,-0x8(%ebp)
		}
  102070:	e9 00 00 00 00       	jmp    102075 <pmm_get_free_space+0x75>

uint32_t pmm_get_free_space(uint32_t div) {
	uint32_t free = 0;

	for (uint32_t i = 0; i < BITMAP_SIZE; i++) {
		for (uint32_t s = 0; s < 32; s++) {
  102075:	8b 45 f0             	mov    -0x10(%ebp),%eax
  102078:	05 01 00 00 00       	add    $0x1,%eax
  10207d:	89 45 f0             	mov    %eax,-0x10(%ebp)
  102080:	e9 a9 ff ff ff       	jmp    10202e <pmm_get_free_space+0x2e>
			if (allocatable[i] & (1 << s))
				free += 0x1000;
		}
	}
  102085:	e9 00 00 00 00       	jmp    10208a <pmm_get_free_space+0x8a>
}

uint32_t pmm_get_free_space(uint32_t div) {
	uint32_t free = 0;

	for (uint32_t i = 0; i < BITMAP_SIZE; i++) {
  10208a:	8b 45 f4             	mov    -0xc(%ebp),%eax
  10208d:	05 01 00 00 00       	add    $0x1,%eax
  102092:	89 45 f4             	mov    %eax,-0xc(%ebp)
  102095:	e9 80 ff ff ff       	jmp    10201a <pmm_get_free_space+0x1a>
			if (allocatable[i] & (1 << s))
				free += 0x1000;
		}
	}

	return free / div;
  10209a:	8b 45 f8             	mov    -0x8(%ebp),%eax
  10209d:	31 d2                	xor    %edx,%edx
  10209f:	f7 75 fc             	divl   -0x4(%ebp)
  1020a2:	83 c4 14             	add    $0x14,%esp
  1020a5:	5d                   	pop    %ebp
  1020a6:	c3                   	ret    
  1020a7:	66 0f 1f 84 00 00 00 	nopw   0x0(%eax,%eax,1)
  1020ae:	00 00 

001020b0 <pmm_free>:
}

void pmm_free(void* addr) {
  1020b0:	55                   	push   %ebp
  1020b1:	89 e5                	mov    %esp,%ebp
  1020b3:	56                   	push   %esi
  1020b4:	83 ec 14             	sub    $0x14,%esp
  1020b7:	8b 45 08             	mov    0x8(%ebp),%eax
  1020ba:	b9 01 00 00 00       	mov    $0x1,%ecx
  1020bf:	89 45 f8             	mov    %eax,-0x8(%ebp)
	uintptr_t ptr = ((uintptr_t) addr) / 4096;
  1020c2:	8b 45 f8             	mov    -0x8(%ebp),%eax
  1020c5:	c1 e8 0c             	shr    $0xc,%eax
  1020c8:	89 45 f4             	mov    %eax,-0xc(%ebp)

	uintptr_t s = ptr % 32;
  1020cb:	8b 45 f4             	mov    -0xc(%ebp),%eax
  1020ce:	25 1f 00 00 00       	and    $0x1f,%eax
  1020d3:	89 45 f0             	mov    %eax,-0x10(%ebp)
	uintptr_t i = ptr / 32;
  1020d6:	8b 45 f4             	mov    -0xc(%ebp),%eax
  1020d9:	c1 e8 05             	shr    $0x5,%eax
  1020dc:	89 45 ec             	mov    %eax,-0x14(%ebp)

	allocatable[i] |= (1 << s);
  1020df:	8b 45 f0             	mov    -0x10(%ebp),%eax
  1020e2:	89 4d e8             	mov    %ecx,-0x18(%ebp)
  1020e5:	89 c1                	mov    %eax,%ecx
  1020e7:	8b 45 e8             	mov    -0x18(%ebp),%eax
  1020ea:	d3 e0                	shl    %cl,%eax
  1020ec:	8b 55 ec             	mov    -0x14(%ebp),%edx
  1020ef:	8b 34 95 88 c4 10 00 	mov    0x10c488(,%edx,4),%esi
  1020f6:	09 c6                	or     %eax,%esi
  1020f8:	89 34 95 88 c4 10 00 	mov    %esi,0x10c488(,%edx,4)
}
  1020ff:	83 c4 14             	add    $0x14,%esp
  102102:	5e                   	pop    %esi
  102103:	5d                   	pop    %ebp
  102104:	c3                   	ret    
  102105:	66 66 2e 0f 1f 84 00 	data32 nopw %cs:0x0(%eax,%eax,1)
  10210c:	00 00 00 00 

00102110 <pmm_mark_used>:

void pmm_mark_used(void* addr) {
  102110:	55                   	push   %ebp
  102111:	89 e5                	mov    %esp,%ebp
  102113:	56                   	push   %esi
  102114:	83 ec 14             	sub    $0x14,%esp
  102117:	8b 45 08             	mov    0x8(%ebp),%eax
  10211a:	b9 01 00 00 00       	mov    $0x1,%ecx
  10211f:	89 45 f8             	mov    %eax,-0x8(%ebp)
	uintptr_t ptr = ((uintptr_t) addr) / 4096;
  102122:	8b 45 f8             	mov    -0x8(%ebp),%eax
  102125:	c1 e8 0c             	shr    $0xc,%eax
  102128:	89 45 f4             	mov    %eax,-0xc(%ebp)

	uintptr_t s = ptr % 32;
  10212b:	8b 45 f4             	mov    -0xc(%ebp),%eax
  10212e:	25 1f 00 00 00       	and    $0x1f,%eax
  102133:	89 45 f0             	mov    %eax,-0x10(%ebp)
	uintptr_t i = ptr / 32;
  102136:	8b 45 f4             	mov    -0xc(%ebp),%eax
  102139:	c1 e8 05             	shr    $0x5,%eax
  10213c:	89 45 ec             	mov    %eax,-0x14(%ebp)

	allocatable[i] &= ~(1 << s);
  10213f:	8b 45 f0             	mov    -0x10(%ebp),%eax
  102142:	89 4d e8             	mov    %ecx,-0x18(%ebp)
  102145:	89 c1                	mov    %eax,%ecx
  102147:	8b 45 e8             	mov    -0x18(%ebp),%eax
  10214a:	d3 e0                	shl    %cl,%eax
  10214c:	35 ff ff ff ff       	xor    $0xffffffff,%eax
  102151:	8b 55 ec             	mov    -0x14(%ebp),%edx
  102154:	8b 34 95 88 c4 10 00 	mov    0x10c488(,%edx,4),%esi
  10215b:	21 c6                	and    %eax,%esi
  10215d:	89 34 95 88 c4 10 00 	mov    %esi,0x10c488(,%edx,4)
}
  102164:	83 c4 14             	add    $0x14,%esp
  102167:	5e                   	pop    %esi
  102168:	5d                   	pop    %ebp
  102169:	c3                   	ret    
  10216a:	66 0f 1f 44 00 00    	nopw   0x0(%eax,%eax,1)

00102170 <pmm_init>:

void pmm_init(struct multiboot_info* mb_info) {
  102170:	55                   	push   %ebp
  102171:	89 e5                	mov    %esp,%ebp
  102173:	53                   	push   %ebx
  102174:	57                   	push   %edi
  102175:	56                   	push   %esi
  102176:	83 ec 5c             	sub    $0x5c,%esp
  102179:	8b 45 08             	mov    0x8(%ebp),%eax
  10217c:	8d 0d d6 62 10 00    	lea    0x1062d6,%ecx
  102182:	8d 15 88 c4 10 00    	lea    0x10c488,%edx
  102188:	89 d6                	mov    %edx,%esi
  10218a:	81 c6 00 00 02 00    	add    $0x20000,%esi
  102190:	89 d7                	mov    %edx,%edi
  102192:	bb 00 00 00 00       	mov    $0x0,%ebx
  102197:	89 45 d0             	mov    %eax,-0x30(%ebp)
  10219a:	b8 00 00 02 00       	mov    $0x20000,%eax
  10219f:	89 45 cc             	mov    %eax,-0x34(%ebp)
  1021a2:	8b 45 d0             	mov    -0x30(%ebp),%eax
  1021a5:	89 45 f0             	mov    %eax,-0x10(%ebp)
	struct multiboot_mmap* mmap = mb_info->mi_mmap_addr;
  1021a8:	8b 45 f0             	mov    -0x10(%ebp),%eax
  1021ab:	8b 40 30             	mov    0x30(%eax),%eax
  1021ae:	89 45 ec             	mov    %eax,-0x14(%ebp)
	struct multiboot_mmap* mmap_end = (void*) ((uintptr_t) mb_info->mi_mmap_addr
  1021b1:	8b 45 f0             	mov    -0x10(%ebp),%eax
  1021b4:	8b 40 30             	mov    0x30(%eax),%eax
  1021b7:	89 45 c8             	mov    %eax,-0x38(%ebp)
  1021ba:	8b 45 f0             	mov    -0x10(%ebp),%eax
  1021bd:	89 45 c4             	mov    %eax,-0x3c(%ebp)
  1021c0:	8b 45 c8             	mov    -0x38(%ebp),%eax
  1021c3:	89 4d c0             	mov    %ecx,-0x40(%ebp)
  1021c6:	8b 4d c4             	mov    -0x3c(%ebp),%ecx
  1021c9:	03 41 2c             	add    0x2c(%ecx),%eax
  1021cc:	89 45 e8             	mov    %eax,-0x18(%ebp)
			+ mb_info->mi_mmap_length);

	memset(allocatable, 0, sizeof(allocatable));
  1021cf:	89 3c 24             	mov    %edi,(%esp)
  1021d2:	c7 44 24 04 00 00 00 	movl   $0x0,0x4(%esp)
  1021d9:	00 
  1021da:	c7 44 24 08 00 00 02 	movl   $0x20000,0x8(%esp)
  1021e1:	00 
  1021e2:	89 5d bc             	mov    %ebx,-0x44(%ebp)
  1021e5:	89 55 b8             	mov    %edx,-0x48(%ebp)
  1021e8:	89 75 b4             	mov    %esi,-0x4c(%ebp)
  1021eb:	e8 00 12 00 00       	call   1033f0 <memset>

	kprintf("Mem-Bitmap: %x to %x\n", allocatable, &(allocatable[BITMAP_SIZE]));
  1021f0:	8b 45 c0             	mov    -0x40(%ebp),%eax
  1021f3:	89 04 24             	mov    %eax,(%esp)
  1021f6:	8b 4d b8             	mov    -0x48(%ebp),%ecx
  1021f9:	89 4c 24 04          	mov    %ecx,0x4(%esp)
  1021fd:	8b 55 b4             	mov    -0x4c(%ebp),%edx
  102200:	89 54 24 08          	mov    %edx,0x8(%esp)
  102204:	e8 47 e3 ff ff       	call   100550 <kprintf>
  102209:	89 45 b0             	mov    %eax,-0x50(%ebp)

	while (mmap < mmap_end) {
  10220c:	8b 45 ec             	mov    -0x14(%ebp),%eax
  10220f:	3b 45 e8             	cmp    -0x18(%ebp),%eax
  102212:	0f 83 77 00 00 00    	jae    10228f <pmm_init+0x11f>
		if (mmap->mm_type == 1) {
  102218:	8b 45 ec             	mov    -0x14(%ebp),%eax
  10221b:	81 78 14 01 00 00 00 	cmpl   $0x1,0x14(%eax)
  102222:	0f 85 57 00 00 00    	jne    10227f <pmm_init+0x10f>
			uintptr_t addr = mmap->mm_base_addr;
  102228:	8b 45 ec             	mov    -0x14(%ebp),%eax
  10222b:	8b 40 04             	mov    0x4(%eax),%eax
  10222e:	89 45 e4             	mov    %eax,-0x1c(%ebp)
			uintptr_t end_addr = addr + mmap->mm_length;
  102231:	8b 4d ec             	mov    -0x14(%ebp),%ecx
  102234:	8b 49 0c             	mov    0xc(%ecx),%ecx
  102237:	01 c8                	add    %ecx,%eax
  102239:	89 45 e0             	mov    %eax,-0x20(%ebp)

			while (addr < end_addr) {
  10223c:	8b 45 e4             	mov    -0x1c(%ebp),%eax
  10223f:	3b 45 e0             	cmp    -0x20(%ebp),%eax
  102242:	0f 83 32 00 00 00    	jae    10227a <pmm_init+0x10a>
				pmm_free((void*) addr);
  102248:	8b 45 e4             	mov    -0x1c(%ebp),%eax
  10224b:	89 04 24             	mov    %eax,(%esp)
  10224e:	e8 5d fe ff ff       	call   1020b0 <pmm_free>
				if (addr > upper_limit)
  102253:	8b 45 e4             	mov    -0x1c(%ebp),%eax
  102256:	3b 05 20 84 10 00    	cmp    0x108420,%eax
  10225c:	0f 86 08 00 00 00    	jbe    10226a <pmm_init+0xfa>
					upper_limit = addr;
  102262:	8b 45 e4             	mov    -0x1c(%ebp),%eax
  102265:	a3 20 84 10 00       	mov    %eax,0x108420
				addr += 0x1000;
  10226a:	8b 45 e4             	mov    -0x1c(%ebp),%eax
  10226d:	05 00 10 00 00       	add    $0x1000,%eax
  102272:	89 45 e4             	mov    %eax,-0x1c(%ebp)
			}
  102275:	e9 c2 ff ff ff       	jmp    10223c <pmm_init+0xcc>
		}
  10227a:	e9 00 00 00 00       	jmp    10227f <pmm_init+0x10f>
		mmap++;
  10227f:	8b 45 ec             	mov    -0x14(%ebp),%eax
  102282:	05 18 00 00 00       	add    $0x18,%eax
  102287:	89 45 ec             	mov    %eax,-0x14(%ebp)
	}
  10228a:	e9 7d ff ff ff       	jmp    10220c <pmm_init+0x9c>
  10228f:	8d 05 00 00 10 00    	lea    0x100000,%eax

	extern const void kernel_start;
	extern const void kernel_end;

	uintptr_t addr = (uintptr_t) &kernel_start;
  102295:	89 45 dc             	mov    %eax,-0x24(%ebp)
  102298:	8d 05 00 d0 16 00    	lea    0x16d000,%eax
	while (addr < (uintptr_t) &kernel_end) {
  10229e:	39 45 dc             	cmp    %eax,-0x24(%ebp)
  1022a1:	0f 83 1b 00 00 00    	jae    1022c2 <pmm_init+0x152>
		pmm_mark_used((void*) addr);
  1022a7:	8b 45 dc             	mov    -0x24(%ebp),%eax
  1022aa:	89 04 24             	mov    %eax,(%esp)
  1022ad:	e8 5e fe ff ff       	call   102110 <pmm_mark_used>
		addr += 0x1000;
  1022b2:	8b 45 dc             	mov    -0x24(%ebp),%eax
  1022b5:	05 00 10 00 00       	add    $0x1000,%eax
  1022ba:	89 45 dc             	mov    %eax,-0x24(%ebp)
	}
  1022bd:	e9 d6 ff ff ff       	jmp    102298 <pmm_init+0x128>

	struct multiboot_module* modules = mb_info->mi_mods_addr;
  1022c2:	8b 45 f0             	mov    -0x10(%ebp),%eax
  1022c5:	8b 40 18             	mov    0x18(%eax),%eax
  1022c8:	89 45 d8             	mov    %eax,-0x28(%ebp)

	pmm_mark_used(mb_info);
  1022cb:	8b 45 f0             	mov    -0x10(%ebp),%eax
  1022ce:	89 04 24             	mov    %eax,(%esp)
  1022d1:	e8 3a fe ff ff       	call   102110 <pmm_mark_used>
	pmm_mark_used(modules);
  1022d6:	8b 45 d8             	mov    -0x28(%ebp),%eax
  1022d9:	89 04 24             	mov    %eax,(%esp)
  1022dc:	e8 2f fe ff ff       	call   102110 <pmm_mark_used>

	uint32_t i;
	for (i = 0; i < mb_info->mi_mods_count; i++) {
  1022e1:	c7 45 d4 00 00 00 00 	movl   $0x0,-0x2c(%ebp)
  1022e8:	8b 45 d4             	mov    -0x2c(%ebp),%eax
  1022eb:	8b 4d f0             	mov    -0x10(%ebp),%ecx
  1022ee:	3b 41 14             	cmp    0x14(%ecx),%eax
  1022f1:	0f 83 59 00 00 00    	jae    102350 <pmm_init+0x1e0>
		addr = (uintptr_t) modules[i].start;
  1022f7:	8b 45 d4             	mov    -0x2c(%ebp),%eax
  1022fa:	8b 4d d8             	mov    -0x28(%ebp),%ecx
  1022fd:	c1 e0 04             	shl    $0x4,%eax
  102300:	01 c1                	add    %eax,%ecx
  102302:	8b 01                	mov    (%ecx),%eax
  102304:	89 45 dc             	mov    %eax,-0x24(%ebp)
		while (addr < (uintptr_t) modules[i].end) {
  102307:	8b 45 dc             	mov    -0x24(%ebp),%eax
  10230a:	8b 4d d4             	mov    -0x2c(%ebp),%ecx
  10230d:	8b 55 d8             	mov    -0x28(%ebp),%edx
  102310:	c1 e1 04             	shl    $0x4,%ecx
  102313:	01 ca                	add    %ecx,%edx
  102315:	8b 4a 04             	mov    0x4(%edx),%ecx
  102318:	39 c8                	cmp    %ecx,%eax
  10231a:	0f 83 1b 00 00 00    	jae    10233b <pmm_init+0x1cb>
			pmm_mark_used((void*) addr);
  102320:	8b 45 dc             	mov    -0x24(%ebp),%eax
  102323:	89 04 24             	mov    %eax,(%esp)
  102326:	e8 e5 fd ff ff       	call   102110 <pmm_mark_used>
			addr += 0x1000;
  10232b:	8b 45 dc             	mov    -0x24(%ebp),%eax
  10232e:	05 00 10 00 00       	add    $0x1000,%eax
  102333:	89 45 dc             	mov    %eax,-0x24(%ebp)
		}
  102336:	e9 cc ff ff ff       	jmp    102307 <pmm_init+0x197>
	}
  10233b:	e9 00 00 00 00       	jmp    102340 <pmm_init+0x1d0>

	pmm_mark_used(mb_info);
	pmm_mark_used(modules);

	uint32_t i;
	for (i = 0; i < mb_info->mi_mods_count; i++) {
  102340:	8b 45 d4             	mov    -0x2c(%ebp),%eax
  102343:	05 01 00 00 00       	add    $0x1,%eax
  102348:	89 45 d4             	mov    %eax,-0x2c(%ebp)
  10234b:	e9 98 ff ff ff       	jmp    1022e8 <pmm_init+0x178>
		while (addr < (uintptr_t) modules[i].end) {
			pmm_mark_used((void*) addr);
			addr += 0x1000;
		}
	}
}
  102350:	83 c4 5c             	add    $0x5c,%esp
  102353:	5e                   	pop    %esi
  102354:	5f                   	pop    %edi
  102355:	5b                   	pop    %ebx
  102356:	5d                   	pop    %ebp
  102357:	c3                   	ret    
  102358:	66 90                	xchg   %ax,%ax
  10235a:	66 90                	xchg   %ax,%ax
  10235c:	66 90                	xchg   %ax,%ax
  10235e:	66 90                	xchg   %ax,%ax

00102360 <ramfs_fifo_init>:
#include "ramfs/fifo.h"

struct fifo_buffer* buffer[65535];

void ramfs_fifo_init() {
  102360:	55                   	push   %ebp
  102361:	89 e5                	mov    %esp,%ebp
  102363:	83 ec 18             	sub    $0x18,%esp
  102366:	8d 05 88 c4 12 00    	lea    0x12c488,%eax
  10236c:	b9 00 00 00 00       	mov    $0x0,%ecx
  102371:	ba fc ff 03 00       	mov    $0x3fffc,%edx
    memset(buffer, 0, sizeof(buffer));
  102376:	89 04 24             	mov    %eax,(%esp)
  102379:	c7 44 24 04 00 00 00 	movl   $0x0,0x4(%esp)
  102380:	00 
  102381:	c7 44 24 08 fc ff 03 	movl   $0x3fffc,0x8(%esp)
  102388:	00 
  102389:	89 55 fc             	mov    %edx,-0x4(%ebp)
  10238c:	89 4d f8             	mov    %ecx,-0x8(%ebp)
  10238f:	e8 5c 10 00 00       	call   1033f0 <memset>
}
  102394:	83 c4 18             	add    $0x18,%esp
  102397:	5d                   	pop    %ebp
  102398:	c3                   	ret    
  102399:	0f 1f 80 00 00 00 00 	nopl   0x0(%eax)

001023a0 <ramfs_fifo_read>:
    }

    return 0;
}

uint32_t ramfs_fifo_read(struct res_handle* handle, void* dest, uint32_t pos, uint32_t length) {
  1023a0:	55                   	push   %ebp
  1023a1:	89 e5                	mov    %esp,%ebp
  1023a3:	56                   	push   %esi
  1023a4:	83 ec 24             	sub    $0x24,%esp
  1023a7:	8b 45 14             	mov    0x14(%ebp),%eax
  1023aa:	8b 4d 10             	mov    0x10(%ebp),%ecx
  1023ad:	8b 55 0c             	mov    0xc(%ebp),%edx
  1023b0:	8b 75 08             	mov    0x8(%ebp),%esi
  1023b3:	89 75 f4             	mov    %esi,-0xc(%ebp)
  1023b6:	89 55 f0             	mov    %edx,-0x10(%ebp)
  1023b9:	89 4d ec             	mov    %ecx,-0x14(%ebp)
  1023bc:	89 45 e8             	mov    %eax,-0x18(%ebp)
    struct res_kfile* kf = ((struct res_kfile*)handle->res_ptr);
  1023bf:	8b 45 f4             	mov    -0xc(%ebp),%eax
  1023c2:	8b 40 04             	mov    0x4(%eax),%eax
  1023c5:	89 45 e4             	mov    %eax,-0x1c(%ebp)

    if(buffer[kf->id] != 0) {
  1023c8:	8b 45 e4             	mov    -0x1c(%ebp),%eax
  1023cb:	8b 00                	mov    (%eax),%eax
  1023cd:	81 3c 85 88 c4 12 00 	cmpl   $0x0,0x12c488(,%eax,4)
  1023d4:	00 00 00 00 
  1023d8:	0f 84 bc 00 00 00    	je     10249a <ramfs_fifo_read+0xfa>
        if(length > buffer[kf->id]->size) return length + 2; //Error code 2 -> Can't read cause buffer too small
  1023de:	8b 45 e8             	mov    -0x18(%ebp),%eax
  1023e1:	8b 4d e4             	mov    -0x1c(%ebp),%ecx
  1023e4:	8b 09                	mov    (%ecx),%ecx
  1023e6:	8b 0c 8d 88 c4 12 00 	mov    0x12c488(,%ecx,4),%ecx
  1023ed:	3b 41 04             	cmp    0x4(%ecx),%eax
  1023f0:	0f 86 10 00 00 00    	jbe    102406 <ramfs_fifo_read+0x66>
  1023f6:	8b 45 e8             	mov    -0x18(%ebp),%eax
  1023f9:	05 02 00 00 00       	add    $0x2,%eax
  1023fe:	89 45 f8             	mov    %eax,-0x8(%ebp)
  102401:	e9 9f 00 00 00       	jmp    1024a5 <ramfs_fifo_read+0x105>
        if(length > buffer[kf->id]->pos)  return 0; //Block until write is possible TODO maybe check if FIFO has writers
  102406:	8b 45 e8             	mov    -0x18(%ebp),%eax
  102409:	8b 4d e4             	mov    -0x1c(%ebp),%ecx
  10240c:	8b 09                	mov    (%ecx),%ecx
  10240e:	8b 0c 8d 88 c4 12 00 	mov    0x12c488(,%ecx,4),%ecx
  102415:	3b 41 08             	cmp    0x8(%ecx),%eax
  102418:	0f 86 0c 00 00 00    	jbe    10242a <ramfs_fifo_read+0x8a>
  10241e:	c7 45 f8 00 00 00 00 	movl   $0x0,-0x8(%ebp)
  102425:	e9 7b 00 00 00       	jmp    1024a5 <ramfs_fifo_read+0x105>

        memcpy(dest, buffer[kf->id]->buffer, length);
  10242a:	8b 45 f0             	mov    -0x10(%ebp),%eax
  10242d:	8b 4d e4             	mov    -0x1c(%ebp),%ecx
  102430:	8b 09                	mov    (%ecx),%ecx
  102432:	8b 0c 8d 88 c4 12 00 	mov    0x12c488(,%ecx,4),%ecx
  102439:	8b 09                	mov    (%ecx),%ecx
  10243b:	8b 55 e8             	mov    -0x18(%ebp),%edx
  10243e:	89 04 24             	mov    %eax,(%esp)
  102441:	89 4c 24 04          	mov    %ecx,0x4(%esp)
  102445:	89 54 24 08          	mov    %edx,0x8(%esp)
  102449:	e8 02 10 00 00       	call   103450 <memcpy>
        memcpy(buffer[kf->id]->buffer, buffer[kf->id]->buffer + length, length - buffer[kf->id]->pos);
  10244e:	8b 45 e4             	mov    -0x1c(%ebp),%eax
  102451:	8b 00                	mov    (%eax),%eax
  102453:	8b 04 85 88 c4 12 00 	mov    0x12c488(,%eax,4),%eax
  10245a:	8b 00                	mov    (%eax),%eax
  10245c:	8b 4d e4             	mov    -0x1c(%ebp),%ecx
  10245f:	8b 09                	mov    (%ecx),%ecx
  102461:	8b 0c 8d 88 c4 12 00 	mov    0x12c488(,%ecx,4),%ecx
  102468:	8b 09                	mov    (%ecx),%ecx
  10246a:	03 4d e8             	add    -0x18(%ebp),%ecx
  10246d:	8b 55 e8             	mov    -0x18(%ebp),%edx
  102470:	8b 75 e4             	mov    -0x1c(%ebp),%esi
  102473:	8b 36                	mov    (%esi),%esi
  102475:	8b 34 b5 88 c4 12 00 	mov    0x12c488(,%esi,4),%esi
  10247c:	2b 56 08             	sub    0x8(%esi),%edx
  10247f:	89 04 24             	mov    %eax,(%esp)
  102482:	89 4c 24 04          	mov    %ecx,0x4(%esp)
  102486:	89 54 24 08          	mov    %edx,0x8(%esp)
  10248a:	e8 c1 0f 00 00       	call   103450 <memcpy>

        return length;
  10248f:	8b 45 e8             	mov    -0x18(%ebp),%eax
  102492:	89 45 f8             	mov    %eax,-0x8(%ebp)
  102495:	e9 0b 00 00 00       	jmp    1024a5 <ramfs_fifo_read+0x105>
    }

    return length + 1; //Deadlock if lib-mikrOS tries to block until successfull read when returning 0 so we return error code 1 (length+1)
  10249a:	8b 45 e8             	mov    -0x18(%ebp),%eax
  10249d:	05 01 00 00 00       	add    $0x1,%eax
  1024a2:	89 45 f8             	mov    %eax,-0x8(%ebp)
}
  1024a5:	8b 45 f8             	mov    -0x8(%ebp),%eax
  1024a8:	83 c4 24             	add    $0x24,%esp
  1024ab:	5e                   	pop    %esi
  1024ac:	5d                   	pop    %ebp
  1024ad:	c3                   	ret    
  1024ae:	66 90                	xchg   %ax,%ax

001024b0 <ramfs_fifo_write>:

uint32_t ramfs_fifo_write(struct res_handle* handle, void* src, uint32_t pos, uint32_t length) {
  1024b0:	55                   	push   %ebp
  1024b1:	89 e5                	mov    %esp,%ebp
  1024b3:	56                   	push   %esi
  1024b4:	83 ec 24             	sub    $0x24,%esp
  1024b7:	8b 45 14             	mov    0x14(%ebp),%eax
  1024ba:	8b 4d 10             	mov    0x10(%ebp),%ecx
  1024bd:	8b 55 0c             	mov    0xc(%ebp),%edx
  1024c0:	8b 75 08             	mov    0x8(%ebp),%esi
  1024c3:	89 75 f4             	mov    %esi,-0xc(%ebp)
  1024c6:	89 55 f0             	mov    %edx,-0x10(%ebp)
  1024c9:	89 4d ec             	mov    %ecx,-0x14(%ebp)
  1024cc:	89 45 e8             	mov    %eax,-0x18(%ebp)
    struct res_kfile* kf = ((struct res_kfile*)handle->res_ptr);
  1024cf:	8b 45 f4             	mov    -0xc(%ebp),%eax
  1024d2:	8b 40 04             	mov    0x4(%eax),%eax
  1024d5:	89 45 e4             	mov    %eax,-0x1c(%ebp)

    if(buffer[kf->id] != 0) {
  1024d8:	8b 45 e4             	mov    -0x1c(%ebp),%eax
  1024db:	8b 00                	mov    (%eax),%eax
  1024dd:	81 3c 85 88 c4 12 00 	cmpl   $0x0,0x12c488(,%eax,4)
  1024e4:	00 00 00 00 
  1024e8:	0f 84 b2 00 00 00    	je     1025a0 <ramfs_fifo_write+0xf0>
        if(length > buffer[kf->id]->size) return length + 2; //Error code 2 -> Can't write cause buffer too small
  1024ee:	8b 45 e8             	mov    -0x18(%ebp),%eax
  1024f1:	8b 4d e4             	mov    -0x1c(%ebp),%ecx
  1024f4:	8b 09                	mov    (%ecx),%ecx
  1024f6:	8b 0c 8d 88 c4 12 00 	mov    0x12c488(,%ecx,4),%ecx
  1024fd:	3b 41 04             	cmp    0x4(%ecx),%eax
  102500:	0f 86 10 00 00 00    	jbe    102516 <ramfs_fifo_write+0x66>
  102506:	8b 45 e8             	mov    -0x18(%ebp),%eax
  102509:	05 02 00 00 00       	add    $0x2,%eax
  10250e:	89 45 f8             	mov    %eax,-0x8(%ebp)
  102511:	e9 95 00 00 00       	jmp    1025ab <ramfs_fifo_write+0xfb>
        if(length > (buffer[kf->id]->size - buffer[kf->id]->pos)) return 0; //Block until write is possible TODO maybe check if FIFO has readers
  102516:	8b 45 e8             	mov    -0x18(%ebp),%eax
  102519:	8b 4d e4             	mov    -0x1c(%ebp),%ecx
  10251c:	8b 09                	mov    (%ecx),%ecx
  10251e:	8b 0c 8d 88 c4 12 00 	mov    0x12c488(,%ecx,4),%ecx
  102525:	8b 49 04             	mov    0x4(%ecx),%ecx
  102528:	8b 55 e4             	mov    -0x1c(%ebp),%edx
  10252b:	8b 12                	mov    (%edx),%edx
  10252d:	8b 14 95 88 c4 12 00 	mov    0x12c488(,%edx,4),%edx
  102534:	2b 4a 08             	sub    0x8(%edx),%ecx
  102537:	39 c8                	cmp    %ecx,%eax
  102539:	0f 86 0c 00 00 00    	jbe    10254b <ramfs_fifo_write+0x9b>
  10253f:	c7 45 f8 00 00 00 00 	movl   $0x0,-0x8(%ebp)
  102546:	e9 60 00 00 00       	jmp    1025ab <ramfs_fifo_write+0xfb>

        memcpy(buffer[kf->id]->buffer + buffer[kf->id]->pos, src, length);
  10254b:	8b 45 e4             	mov    -0x1c(%ebp),%eax
  10254e:	8b 00                	mov    (%eax),%eax
  102550:	8b 04 85 88 c4 12 00 	mov    0x12c488(,%eax,4),%eax
  102557:	8b 00                	mov    (%eax),%eax
  102559:	8b 4d e4             	mov    -0x1c(%ebp),%ecx
  10255c:	8b 09                	mov    (%ecx),%ecx
  10255e:	8b 0c 8d 88 c4 12 00 	mov    0x12c488(,%ecx,4),%ecx
  102565:	03 41 08             	add    0x8(%ecx),%eax
  102568:	8b 4d f0             	mov    -0x10(%ebp),%ecx
  10256b:	8b 55 e8             	mov    -0x18(%ebp),%edx
  10256e:	89 04 24             	mov    %eax,(%esp)
  102571:	89 4c 24 04          	mov    %ecx,0x4(%esp)
  102575:	89 54 24 08          	mov    %edx,0x8(%esp)
  102579:	e8 d2 0e 00 00       	call   103450 <memcpy>
        buffer[kf->id]->pos += length;
  10257e:	8b 45 e8             	mov    -0x18(%ebp),%eax
  102581:	8b 4d e4             	mov    -0x1c(%ebp),%ecx
  102584:	8b 09                	mov    (%ecx),%ecx
  102586:	8b 0c 8d 88 c4 12 00 	mov    0x12c488(,%ecx,4),%ecx
  10258d:	8b 51 08             	mov    0x8(%ecx),%edx
  102590:	01 c2                	add    %eax,%edx
  102592:	89 51 08             	mov    %edx,0x8(%ecx)

        return length;
  102595:	8b 45 e8             	mov    -0x18(%ebp),%eax
  102598:	89 45 f8             	mov    %eax,-0x8(%ebp)
  10259b:	e9 0b 00 00 00       	jmp    1025ab <ramfs_fifo_write+0xfb>
    }

    return length + 1; //Deadlock if lib-mikrOS tries to block until successfull write when returning 0 so we return error code 1 (length+1)
  1025a0:	8b 45 e8             	mov    -0x18(%ebp),%eax
  1025a3:	05 01 00 00 00       	add    $0x1,%eax
  1025a8:	89 45 f8             	mov    %eax,-0x8(%ebp)
}
  1025ab:	8b 45 f8             	mov    -0x8(%ebp),%eax
  1025ae:	83 c4 24             	add    $0x24,%esp
  1025b1:	5e                   	pop    %esi
  1025b2:	5d                   	pop    %ebp
  1025b3:	c3                   	ret    
  1025b4:	66 66 66 2e 0f 1f 84 	data32 data32 nopw %cs:0x0(%eax,%eax,1)
  1025bb:	00 00 00 00 00 

001025c0 <ramfs_fifo_open>:

struct res_handle* ramfs_fifo_open(struct res_kfile* kf, uint32_t filemode) {
  1025c0:	55                   	push   %ebp
  1025c1:	89 e5                	mov    %esp,%ebp
  1025c3:	83 ec 18             	sub    $0x18,%esp
  1025c6:	8b 45 0c             	mov    0xc(%ebp),%eax
  1025c9:	8b 4d 08             	mov    0x8(%ebp),%ecx
  1025cc:	89 4d f8             	mov    %ecx,-0x8(%ebp)
  1025cf:	89 45 f4             	mov    %eax,-0xc(%ebp)
    if(buffer[kf->id] != 0) {
  1025d2:	8b 45 f8             	mov    -0x8(%ebp),%eax
  1025d5:	8b 00                	mov    (%eax),%eax
  1025d7:	81 3c 85 88 c4 12 00 	cmpl   $0x0,0x12c488(,%eax,4)
  1025de:	00 00 00 00 
  1025e2:	0f 84 f4 00 00 00    	je     1026dc <ramfs_fifo_open+0x11c>
        if(filemode & FM_EXEC) return 0;
  1025e8:	8b 45 f4             	mov    -0xc(%ebp),%eax
  1025eb:	25 04 00 00 00       	and    $0x4,%eax
  1025f0:	3d 00 00 00 00       	cmp    $0x0,%eax
  1025f5:	0f 84 0c 00 00 00    	je     102607 <ramfs_fifo_open+0x47>
  1025fb:	c7 45 fc 00 00 00 00 	movl   $0x0,-0x4(%ebp)
  102602:	e9 dc 00 00 00       	jmp    1026e3 <ramfs_fifo_open+0x123>
        if((filemode & FM_READ) && buffer[kf->id]->readers > 0) return 0;
  102607:	8b 45 f4             	mov    -0xc(%ebp),%eax
  10260a:	25 01 00 00 00       	and    $0x1,%eax
  10260f:	3d 00 00 00 00       	cmp    $0x0,%eax
  102614:	0f 84 25 00 00 00    	je     10263f <ramfs_fifo_open+0x7f>
  10261a:	8b 45 f8             	mov    -0x8(%ebp),%eax
  10261d:	8b 00                	mov    (%eax),%eax
  10261f:	8b 04 85 88 c4 12 00 	mov    0x12c488(,%eax,4),%eax
  102626:	81 78 0c 00 00 00 00 	cmpl   $0x0,0xc(%eax)
  10262d:	0f 86 0c 00 00 00    	jbe    10263f <ramfs_fifo_open+0x7f>
  102633:	c7 45 fc 00 00 00 00 	movl   $0x0,-0x4(%ebp)
  10263a:	e9 a4 00 00 00       	jmp    1026e3 <ramfs_fifo_open+0x123>

        if((filemode & FM_READ)) buffer[kf->id]->readers++;
  10263f:	8b 45 f4             	mov    -0xc(%ebp),%eax
  102642:	25 01 00 00 00       	and    $0x1,%eax
  102647:	3d 00 00 00 00       	cmp    $0x0,%eax
  10264c:	0f 84 18 00 00 00    	je     10266a <ramfs_fifo_open+0xaa>
  102652:	8b 45 f8             	mov    -0x8(%ebp),%eax
  102655:	8b 00                	mov    (%eax),%eax
  102657:	8b 04 85 88 c4 12 00 	mov    0x12c488(,%eax,4),%eax
  10265e:	8b 48 0c             	mov    0xc(%eax),%ecx
  102661:	81 c1 01 00 00 00    	add    $0x1,%ecx
  102667:	89 48 0c             	mov    %ecx,0xc(%eax)
        if((filemode & FM_WRITE)) buffer[kf->id]->writers++;
  10266a:	8b 45 f4             	mov    -0xc(%ebp),%eax
  10266d:	25 02 00 00 00       	and    $0x2,%eax
  102672:	3d 00 00 00 00       	cmp    $0x0,%eax
  102677:	0f 84 18 00 00 00    	je     102695 <ramfs_fifo_open+0xd5>
  10267d:	8b 45 f8             	mov    -0x8(%ebp),%eax
  102680:	8b 00                	mov    (%eax),%eax
  102682:	8b 04 85 88 c4 12 00 	mov    0x12c488(,%eax,4),%eax
  102689:	8b 48 10             	mov    0x10(%eax),%ecx
  10268c:	81 c1 01 00 00 00    	add    $0x1,%ecx
  102692:	89 48 10             	mov    %ecx,0x10(%eax)
  102695:	b8 10 00 00 00       	mov    $0x10,%eax

        struct res_handle* rethandle = malloc(sizeof(struct res_handle));
  10269a:	c7 04 24 10 00 00 00 	movl   $0x10,(%esp)
  1026a1:	89 45 ec             	mov    %eax,-0x14(%ebp)
  1026a4:	e8 f7 06 00 00       	call   102da0 <malloc>
  1026a9:	89 45 f0             	mov    %eax,-0x10(%ebp)

        rethandle->filemode = filemode;
  1026ac:	8b 45 f4             	mov    -0xc(%ebp),%eax
  1026af:	8b 4d f0             	mov    -0x10(%ebp),%ecx
  1026b2:	89 41 0c             	mov    %eax,0xc(%ecx)
        rethandle->position = 0;
  1026b5:	8b 45 f0             	mov    -0x10(%ebp),%eax
  1026b8:	c7 40 08 00 00 00 00 	movl   $0x0,0x8(%eax)
        rethandle->res_type = RES_KERNDRV;
  1026bf:	8b 45 f0             	mov    -0x10(%ebp),%eax
  1026c2:	c7 00 01 00 00 00    	movl   $0x1,(%eax)
        rethandle->res_ptr  = kf;
  1026c8:	8b 45 f8             	mov    -0x8(%ebp),%eax
  1026cb:	8b 4d f0             	mov    -0x10(%ebp),%ecx
  1026ce:	89 41 04             	mov    %eax,0x4(%ecx)

        return rethandle;
  1026d1:	8b 45 f0             	mov    -0x10(%ebp),%eax
  1026d4:	89 45 fc             	mov    %eax,-0x4(%ebp)
  1026d7:	e9 07 00 00 00       	jmp    1026e3 <ramfs_fifo_open+0x123>
    }

    return 0;
  1026dc:	c7 45 fc 00 00 00 00 	movl   $0x0,-0x4(%ebp)
}
  1026e3:	8b 45 fc             	mov    -0x4(%ebp),%eax
  1026e6:	83 c4 18             	add    $0x18,%esp
  1026e9:	5d                   	pop    %ebp
  1026ea:	c3                   	ret    
  1026eb:	0f 1f 44 00 00       	nopl   0x0(%eax,%eax,1)

001026f0 <ramfs_fifo_close>:

uint32_t ramfs_fifo_close(struct res_handle* handle) {
  1026f0:	55                   	push   %ebp
  1026f1:	89 e5                	mov    %esp,%ebp
  1026f3:	83 ec 18             	sub    $0x18,%esp
  1026f6:	8b 45 08             	mov    0x8(%ebp),%eax
  1026f9:	89 45 fc             	mov    %eax,-0x4(%ebp)
    struct res_kfile* kf = ((struct res_kfile*)handle->res_ptr);
  1026fc:	8b 45 fc             	mov    -0x4(%ebp),%eax
  1026ff:	8b 40 04             	mov    0x4(%eax),%eax
  102702:	89 45 f8             	mov    %eax,-0x8(%ebp)

    if(buffer[kf->id] != 0) {
  102705:	8b 45 f8             	mov    -0x8(%ebp),%eax
  102708:	8b 00                	mov    (%eax),%eax
  10270a:	81 3c 85 88 c4 12 00 	cmpl   $0x0,0x12c488(,%eax,4)
  102711:	00 00 00 00 
  102715:	0f 84 61 00 00 00    	je     10277c <ramfs_fifo_close+0x8c>
        if(handle->filemode & FM_READ)  buffer[kf->id]->readers--;
  10271b:	8b 45 fc             	mov    -0x4(%ebp),%eax
  10271e:	8b 40 0c             	mov    0xc(%eax),%eax
  102721:	25 01 00 00 00       	and    $0x1,%eax
  102726:	3d 00 00 00 00       	cmp    $0x0,%eax
  10272b:	0f 84 18 00 00 00    	je     102749 <ramfs_fifo_close+0x59>
  102731:	8b 45 f8             	mov    -0x8(%ebp),%eax
  102734:	8b 00                	mov    (%eax),%eax
  102736:	8b 04 85 88 c4 12 00 	mov    0x12c488(,%eax,4),%eax
  10273d:	8b 48 0c             	mov    0xc(%eax),%ecx
  102740:	81 c1 ff ff ff ff    	add    $0xffffffff,%ecx
  102746:	89 48 0c             	mov    %ecx,0xc(%eax)
        if(handle->filemode & FM_WRITE) buffer[kf->id]->writers--;
  102749:	8b 45 fc             	mov    -0x4(%ebp),%eax
  10274c:	8b 40 0c             	mov    0xc(%eax),%eax
  10274f:	25 02 00 00 00       	and    $0x2,%eax
  102754:	3d 00 00 00 00       	cmp    $0x0,%eax
  102759:	0f 84 18 00 00 00    	je     102777 <ramfs_fifo_close+0x87>
  10275f:	8b 45 f8             	mov    -0x8(%ebp),%eax
  102762:	8b 00                	mov    (%eax),%eax
  102764:	8b 04 85 88 c4 12 00 	mov    0x12c488(,%eax,4),%eax
  10276b:	8b 48 10             	mov    0x10(%eax),%ecx
  10276e:	81 c1 ff ff ff ff    	add    $0xffffffff,%ecx
  102774:	89 48 10             	mov    %ecx,0x10(%eax)
    }
  102777:	e9 00 00 00 00       	jmp    10277c <ramfs_fifo_close+0x8c>

    free(handle);
  10277c:	8b 45 fc             	mov    -0x4(%ebp),%eax
  10277f:	89 04 24             	mov    %eax,(%esp)
  102782:	e8 89 08 00 00       	call   103010 <free>
  102787:	b8 00 00 00 00       	mov    $0x0,%eax

    return 0;
  10278c:	83 c4 18             	add    $0x18,%esp
  10278f:	5d                   	pop    %ebp
  102790:	c3                   	ret    
  102791:	66 66 66 66 66 66 2e 	data32 data32 data32 data32 data32 nopw %cs:0x0(%eax,%eax,1)
  102798:	0f 1f 84 00 00 00 00 
  10279f:	00 

001027a0 <ramfs_fifo_create>:

struct kfs_driver* ramfs_fifo_driver_struct() {
    return &fifo_driver;
}

struct res_kfile* ramfs_fifo_create(uint32_t* args) {
  1027a0:	55                   	push   %ebp
  1027a1:	89 e5                	mov    %esp,%ebp
  1027a3:	83 ec 28             	sub    $0x28,%esp
  1027a6:	8b 45 08             	mov    0x8(%ebp),%eax
  1027a9:	b9 08 00 00 00       	mov    $0x8,%ecx
  1027ae:	89 45 f8             	mov    %eax,-0x8(%ebp)
    struct res_kfile* kfret = malloc(sizeof(struct res_kfile));
  1027b1:	c7 04 24 08 00 00 00 	movl   $0x8,(%esp)
  1027b8:	89 4d ec             	mov    %ecx,-0x14(%ebp)
  1027bb:	e8 e0 05 00 00       	call   102da0 <malloc>
  1027c0:	89 45 f4             	mov    %eax,-0xc(%ebp)

    for(int i = 0; i < 65535; i++) {
  1027c3:	c7 45 f0 00 00 00 00 	movl   $0x0,-0x10(%ebp)
  1027ca:	81 7d f0 ff ff 00 00 	cmpl   $0xffff,-0x10(%ebp)
  1027d1:	0f 8d 73 00 00 00    	jge    10284a <ramfs_fifo_create+0xaa>
        if(buffer[i] == 0) {
  1027d7:	8b 45 f0             	mov    -0x10(%ebp),%eax
  1027da:	81 3c 85 88 c4 12 00 	cmpl   $0x0,0x12c488(,%eax,4)
  1027e1:	00 00 00 00 
  1027e5:	0f 85 4a 00 00 00    	jne    102835 <ramfs_fifo_create+0x95>
  1027eb:	b8 14 00 00 00       	mov    $0x14,%eax
            buffer[i] = malloc(sizeof(struct fifo_buffer));
  1027f0:	c7 04 24 14 00 00 00 	movl   $0x14,(%esp)
  1027f7:	89 45 e8             	mov    %eax,-0x18(%ebp)
  1027fa:	e8 a1 05 00 00       	call   102da0 <malloc>
  1027ff:	8b 4d f0             	mov    -0x10(%ebp),%ecx
  102802:	89 04 8d 88 c4 12 00 	mov    %eax,0x12c488(,%ecx,4)
            buffer[i]->buffer = malloc(args[0]);
  102809:	8b 45 f8             	mov    -0x8(%ebp),%eax
  10280c:	8b 00                	mov    (%eax),%eax
  10280e:	89 04 24             	mov    %eax,(%esp)
  102811:	e8 8a 05 00 00       	call   102da0 <malloc>
  102816:	8b 4d f0             	mov    -0x10(%ebp),%ecx
  102819:	8b 0c 8d 88 c4 12 00 	mov    0x12c488(,%ecx,4),%ecx
  102820:	89 01                	mov    %eax,(%ecx)

            kfret->id = i;
  102822:	8b 45 f0             	mov    -0x10(%ebp),%eax
  102825:	8b 4d f4             	mov    -0xc(%ebp),%ecx
  102828:	89 01                	mov    %eax,(%ecx)

            return kfret;
  10282a:	8b 45 f4             	mov    -0xc(%ebp),%eax
  10282d:	89 45 fc             	mov    %eax,-0x4(%ebp)
  102830:	e9 1c 00 00 00       	jmp    102851 <ramfs_fifo_create+0xb1>
        }
    }
  102835:	e9 00 00 00 00       	jmp    10283a <ramfs_fifo_create+0x9a>
}

struct res_kfile* ramfs_fifo_create(uint32_t* args) {
    struct res_kfile* kfret = malloc(sizeof(struct res_kfile));

    for(int i = 0; i < 65535; i++) {
  10283a:	8b 45 f0             	mov    -0x10(%ebp),%eax
  10283d:	05 01 00 00 00       	add    $0x1,%eax
  102842:	89 45 f0             	mov    %eax,-0x10(%ebp)
  102845:	e9 80 ff ff ff       	jmp    1027ca <ramfs_fifo_create+0x2a>

            return kfret;
        }
    }

    return 0;
  10284a:	c7 45 fc 00 00 00 00 	movl   $0x0,-0x4(%ebp)
}
  102851:	8b 45 fc             	mov    -0x4(%ebp),%eax
  102854:	83 c4 28             	add    $0x28,%esp
  102857:	5d                   	pop    %ebp
  102858:	c3                   	ret    
  102859:	0f 1f 80 00 00 00 00 	nopl   0x0(%eax)

00102860 <ramfs_fifo_driver_struct>:
    .create  = ramfs_fifo_create,
    .close   = ramfs_fifo_close,
    .drvname = "FIFO-Buffer"
};

struct kfs_driver* ramfs_fifo_driver_struct() {
  102860:	55                   	push   %ebp
  102861:	89 e5                	mov    %esp,%ebp
  102863:	8d 05 88 51 10 00    	lea    0x105188,%eax
    return &fifo_driver;
  102869:	5d                   	pop    %ebp
  10286a:	c3                   	ret    
  10286b:	90                   	nop
  10286c:	66 90                	xchg   %ax,%ax
  10286e:	66 90                	xchg   %ax,%ax

00102870 <enableScheduling>:
struct task* first_task = 0;
struct task* current_task = 0;

int nextPID = 1;

void enableScheduling(void) {
  102870:	55                   	push   %ebp
  102871:	89 e5                	mov    %esp,%ebp
    schedulingEnabled = 1;
  102873:	c7 05 24 84 10 00 01 	movl   $0x1,0x108424
  10287a:	00 00 00 
}
  10287d:	5d                   	pop    %ebp
  10287e:	c3                   	ret    
  10287f:	90                   	nop

00102880 <isSchedulingEnabled>:

uint32_t isSchedulingEnabled(void) {
  102880:	55                   	push   %ebp
  102881:	89 e5                	mov    %esp,%ebp
    return schedulingEnabled;
  102883:	a1 24 84 10 00       	mov    0x108424,%eax
  102888:	5d                   	pop    %ebp
  102889:	c3                   	ret    
  10288a:	66 0f 1f 44 00 00    	nopw   0x0(%eax,%eax,1)

00102890 <get_current_task>:
}

struct task* get_current_task(void) {
  102890:	55                   	push   %ebp
  102891:	89 e5                	mov    %esp,%ebp
    return current_task;
  102893:	a1 2c 84 10 00       	mov    0x10842c,%eax
  102898:	5d                   	pop    %ebp
  102899:	c3                   	ret    
  10289a:	66 0f 1f 44 00 00    	nopw   0x0(%eax,%eax,1)

001028a0 <schedule_exception>:
}

struct cpu_state* schedule_exception(struct cpu_state* cpu) {
  1028a0:	55                   	push   %ebp
  1028a1:	89 e5                	mov    %esp,%ebp
  1028a3:	56                   	push   %esi
  1028a4:	83 ec 34             	sub    $0x34,%esp
  1028a7:	8b 45 08             	mov    0x8(%ebp),%eax
  1028aa:	89 45 f4             	mov    %eax,-0xc(%ebp)
    if (current_task == first_task && current_task->next == 0) {
  1028ad:	a1 2c 84 10 00       	mov    0x10842c,%eax
  1028b2:	3b 05 28 84 10 00    	cmp    0x108428,%eax
  1028b8:	0f 85 71 00 00 00    	jne    10292f <schedule_exception+0x8f>
  1028be:	a1 2c 84 10 00       	mov    0x10842c,%eax
  1028c3:	81 78 08 00 00 00 00 	cmpl   $0x0,0x8(%eax)
  1028ca:	0f 85 5f 00 00 00    	jne    10292f <schedule_exception+0x8f>
  1028d0:	b8 04 00 00 00       	mov    $0x4,%eax
        //Only one process is running, which just crashed. Stop system.
        setclr(0x04);
  1028d5:	c7 04 24 04 00 00 00 	movl   $0x4,(%esp)
  1028dc:	89 45 f0             	mov    %eax,-0x10(%ebp)
  1028df:	e8 4c dc ff ff       	call   100530 <setclr>
  1028e4:	8d 05 f8 62 10 00    	lea    0x1062f8,%eax
        kprintf("\n Terminated task (PID=%d) due to exception %x:%x \n",
  1028ea:	8b 0d 2c 84 10 00    	mov    0x10842c,%ecx
  1028f0:	8b 09                	mov    (%ecx),%ecx
  1028f2:	8b 55 f4             	mov    -0xc(%ebp),%edx
  1028f5:	8b 52 1c             	mov    0x1c(%edx),%edx
  1028f8:	8b 75 f4             	mov    -0xc(%ebp),%esi
  1028fb:	8b 76 20             	mov    0x20(%esi),%esi
  1028fe:	89 04 24             	mov    %eax,(%esp)
  102901:	89 4c 24 04          	mov    %ecx,0x4(%esp)
  102905:	89 54 24 08          	mov    %edx,0x8(%esp)
  102909:	89 74 24 0c          	mov    %esi,0xc(%esp)
  10290d:	e8 3e dc ff ff       	call   100550 <kprintf>
  102912:	8d 0d 2c 63 10 00    	lea    0x10632c,%ecx
                current_task->PID, cpu->intr, cpu->error);
        show_cod(cpu, "Last task crashed. Terminating kernel...");
  102918:	8b 55 f4             	mov    -0xc(%ebp),%edx
  10291b:	89 14 24             	mov    %edx,(%esp)
  10291e:	89 4c 24 04          	mov    %ecx,0x4(%esp)
  102922:	89 45 ec             	mov    %eax,-0x14(%ebp)
  102925:	e8 46 da ff ff       	call   100370 <show_cod>
    } else {
  10292a:	e9 88 00 00 00       	jmp    1029b7 <schedule_exception+0x117>
  10292f:	b8 04 00 00 00       	mov    $0x4,%eax
        //Potential security leaks available in following code.
        setclr(0x04);
  102934:	c7 04 24 04 00 00 00 	movl   $0x4,(%esp)
  10293b:	89 45 e8             	mov    %eax,-0x18(%ebp)
  10293e:	e8 ed db ff ff       	call   100530 <setclr>
  102943:	8d 05 f8 62 10 00    	lea    0x1062f8,%eax
        kprintf("\n Terminated task (PID=%d) due to exception %x:%x \n",
  102949:	8b 0d 2c 84 10 00    	mov    0x10842c,%ecx
  10294f:	8b 09                	mov    (%ecx),%ecx
  102951:	8b 55 f4             	mov    -0xc(%ebp),%edx
  102954:	8b 52 1c             	mov    0x1c(%edx),%edx
  102957:	8b 75 f4             	mov    -0xc(%ebp),%esi
  10295a:	8b 76 20             	mov    0x20(%esi),%esi
  10295d:	89 04 24             	mov    %eax,(%esp)
  102960:	89 4c 24 04          	mov    %ecx,0x4(%esp)
  102964:	89 54 24 08          	mov    %edx,0x8(%esp)
  102968:	89 74 24 0c          	mov    %esi,0xc(%esp)
  10296c:	e8 df db ff ff       	call   100550 <kprintf>
  102971:	8d 0d 3d 64 10 00    	lea    0x10643d,%ecx
                current_task->PID, cpu->intr, cpu->error);
        kprintf("\n");
  102977:	89 0c 24             	mov    %ecx,(%esp)
  10297a:	89 45 e4             	mov    %eax,-0x1c(%ebp)
  10297d:	e8 ce db ff ff       	call   100550 <kprintf>
        show_dump(cpu);
  102982:	8b 4d f4             	mov    -0xc(%ebp),%ecx
  102985:	89 0c 24             	mov    %ecx,(%esp)
  102988:	89 45 e0             	mov    %eax,-0x20(%ebp)
  10298b:	e8 50 da ff ff       	call   1003e0 <show_dump>
  102990:	b8 07 00 00 00       	mov    $0x7,%eax
        setclr(0x07);
  102995:	c7 04 24 07 00 00 00 	movl   $0x7,(%esp)
  10299c:	89 45 dc             	mov    %eax,-0x24(%ebp)
  10299f:	e8 8c db ff ff       	call   100530 <setclr>

        return terminate_current(cpu);
  1029a4:	8b 45 f4             	mov    -0xc(%ebp),%eax
  1029a7:	89 04 24             	mov    %eax,(%esp)
  1029aa:	e8 21 00 00 00       	call   1029d0 <terminate_current>
  1029af:	89 45 f8             	mov    %eax,-0x8(%ebp)
  1029b2:	e9 06 00 00 00       	jmp    1029bd <schedule_exception+0x11d>
    }
    return cpu;
  1029b7:	8b 45 f4             	mov    -0xc(%ebp),%eax
  1029ba:	89 45 f8             	mov    %eax,-0x8(%ebp)
}
  1029bd:	8b 45 f8             	mov    -0x8(%ebp),%eax
  1029c0:	83 c4 34             	add    $0x34,%esp
  1029c3:	5e                   	pop    %esi
  1029c4:	5d                   	pop    %ebp
  1029c5:	c3                   	ret    
  1029c6:	66 2e 0f 1f 84 00 00 	nopw   %cs:0x0(%eax,%eax,1)
  1029cd:	00 00 00 

001029d0 <terminate_current>:

struct cpu_state* terminate_current(struct cpu_state* cpu) {
  1029d0:	55                   	push   %ebp
  1029d1:	89 e5                	mov    %esp,%ebp
  1029d3:	83 ec 18             	sub    $0x18,%esp
  1029d6:	8b 45 08             	mov    0x8(%ebp),%eax
  1029d9:	89 45 fc             	mov    %eax,-0x4(%ebp)
    struct task* next = current_task->next;
  1029dc:	a1 2c 84 10 00       	mov    0x10842c,%eax
  1029e1:	8b 40 08             	mov    0x8(%eax),%eax
  1029e4:	89 45 f8             	mov    %eax,-0x8(%ebp)
    struct task* prev = current_task->prev;
  1029e7:	a1 2c 84 10 00       	mov    0x10842c,%eax
  1029ec:	8b 40 0c             	mov    0xc(%eax),%eax
  1029ef:	89 45 f4             	mov    %eax,-0xc(%ebp)

    //TODO: free resources here

    if (current_task == first_task) {
  1029f2:	a1 2c 84 10 00       	mov    0x10842c,%eax
  1029f7:	3b 05 28 84 10 00    	cmp    0x108428,%eax
  1029fd:	0f 85 0d 00 00 00    	jne    102a10 <terminate_current+0x40>
        first_task = current_task->next;
  102a03:	a1 2c 84 10 00       	mov    0x10842c,%eax
  102a08:	8b 40 08             	mov    0x8(%eax),%eax
  102a0b:	a3 28 84 10 00       	mov    %eax,0x108428
    }

    if (next != 0) {
  102a10:	81 7d f8 00 00 00 00 	cmpl   $0x0,-0x8(%ebp)
  102a17:	0f 84 09 00 00 00    	je     102a26 <terminate_current+0x56>
        next->prev = prev;
  102a1d:	8b 45 f4             	mov    -0xc(%ebp),%eax
  102a20:	8b 4d f8             	mov    -0x8(%ebp),%ecx
  102a23:	89 41 0c             	mov    %eax,0xc(%ecx)
    }

    if (prev != 0) {
  102a26:	81 7d f4 00 00 00 00 	cmpl   $0x0,-0xc(%ebp)
  102a2d:	0f 84 09 00 00 00    	je     102a3c <terminate_current+0x6c>
        prev->next = next;
  102a33:	8b 45 f8             	mov    -0x8(%ebp),%eax
  102a36:	8b 4d f4             	mov    -0xc(%ebp),%ecx
  102a39:	89 41 08             	mov    %eax,0x8(%ecx)
    }

    //TODO: handle if all tasks are closed

    if (next == 0)
  102a3c:	81 7d f8 00 00 00 00 	cmpl   $0x0,-0x8(%ebp)
  102a43:	0f 85 08 00 00 00    	jne    102a51 <terminate_current+0x81>
        next = first_task;
  102a49:	a1 28 84 10 00       	mov    0x108428,%eax
  102a4e:	89 45 f8             	mov    %eax,-0x8(%ebp)

    current_task = next;
  102a51:	8b 45 f8             	mov    -0x8(%ebp),%eax
  102a54:	a3 2c 84 10 00       	mov    %eax,0x10842c
    vmm_activate_pagedir(current_task->phys_pdir);
  102a59:	a1 2c 84 10 00       	mov    0x10842c,%eax
  102a5e:	8b 40 14             	mov    0x14(%eax),%eax
  102a61:	89 04 24             	mov    %eax,(%esp)
  102a64:	e8 17 21 00 00       	call   104b80 <vmm_activate_pagedir>
    return current_task->cpuState;
  102a69:	a1 2c 84 10 00       	mov    0x10842c,%eax
  102a6e:	8b 40 04             	mov    0x4(%eax),%eax
  102a71:	83 c4 18             	add    $0x18,%esp
  102a74:	5d                   	pop    %ebp
  102a75:	c3                   	ret    
  102a76:	66 2e 0f 1f 84 00 00 	nopw   %cs:0x0(%eax,%eax,1)
  102a7d:	00 00 00 

00102a80 <fork_task_state>:
}

void fork_task_state(struct task* new_task) {
  102a80:	55                   	push   %ebp
  102a81:	89 e5                	mov    %esp,%ebp
  102a83:	83 ec 18             	sub    $0x18,%esp
  102a86:	8b 45 08             	mov    0x8(%ebp),%eax
  102a89:	b9 38 00 00 00       	mov    $0x38,%ecx
  102a8e:	89 45 fc             	mov    %eax,-0x4(%ebp)
    new_task->user_stack_bottom = current_task->user_stack_bottom;
  102a91:	a1 2c 84 10 00       	mov    0x10842c,%eax
  102a96:	8b 40 10             	mov    0x10(%eax),%eax
  102a99:	8b 55 fc             	mov    -0x4(%ebp),%edx
  102a9c:	89 42 10             	mov    %eax,0x10(%edx)

    memcpy(new_task->cpuState, current_task->cpuState,
  102a9f:	8b 45 fc             	mov    -0x4(%ebp),%eax
  102aa2:	8b 40 04             	mov    0x4(%eax),%eax
  102aa5:	8b 15 2c 84 10 00    	mov    0x10842c,%edx
  102aab:	8b 52 04             	mov    0x4(%edx),%edx
  102aae:	89 04 24             	mov    %eax,(%esp)
  102ab1:	89 54 24 04          	mov    %edx,0x4(%esp)
  102ab5:	c7 44 24 08 38 00 00 	movl   $0x38,0x8(%esp)
  102abc:	00 
  102abd:	89 4d f8             	mov    %ecx,-0x8(%ebp)
  102ac0:	e8 8b 09 00 00       	call   103450 <memcpy>
            sizeof(struct cpu_state));

    new_task->cpuState->eax = 0;
  102ac5:	8b 45 fc             	mov    -0x4(%ebp),%eax
  102ac8:	8b 40 04             	mov    0x4(%eax),%eax
  102acb:	c7 00 00 00 00 00    	movl   $0x0,(%eax)
}
  102ad1:	83 c4 18             	add    $0x18,%esp
  102ad4:	5d                   	pop    %ebp
  102ad5:	c3                   	ret    
  102ad6:	66 2e 0f 1f 84 00 00 	nopw   %cs:0x0(%eax,%eax,1)
  102add:	00 00 00 

00102ae0 <init_task>:

struct task* init_task(uint32_t task_pagedir, void* entry) {
  102ae0:	55                   	push   %ebp
  102ae1:	89 e5                	mov    %esp,%ebp
  102ae3:	83 ec 68             	sub    $0x68,%esp
  102ae6:	8b 45 0c             	mov    0xc(%ebp),%eax
  102ae9:	8b 4d 08             	mov    0x8(%ebp),%ecx
  102aec:	ba 18 10 00 00       	mov    $0x1018,%edx
  102af1:	89 4d fc             	mov    %ecx,-0x4(%ebp)
  102af4:	89 45 f8             	mov    %eax,-0x8(%ebp)
    struct task* ntask = malloc(sizeof(struct task));
  102af7:	c7 04 24 18 10 00 00 	movl   $0x1018,(%esp)
  102afe:	89 55 b4             	mov    %edx,-0x4c(%ebp)
  102b01:	e8 9a 02 00 00       	call   102da0 <malloc>
  102b06:	b9 38 00 00 00       	mov    $0x38,%ecx
  102b0b:	89 45 f4             	mov    %eax,-0xc(%ebp)
    ntask->cpuState = malloc(sizeof(struct cpu_state));
  102b0e:	c7 04 24 38 00 00 00 	movl   $0x38,(%esp)
  102b15:	89 4d b0             	mov    %ecx,-0x50(%ebp)
  102b18:	e8 83 02 00 00       	call   102da0 <malloc>
  102b1d:	b9 00 e0 ff ff       	mov    $0xffffe000,%ecx
  102b22:	8b 55 f4             	mov    -0xc(%ebp),%edx
  102b25:	89 42 04             	mov    %eax,0x4(%edx)

    ntask->phys_pdir = task_pagedir;
  102b28:	8b 45 fc             	mov    -0x4(%ebp),%eax
  102b2b:	8b 55 f4             	mov    -0xc(%ebp),%edx
  102b2e:	89 42 14             	mov    %eax,0x14(%edx)
    ntask->user_stack_bottom = (void*) 0xFFFFE000;
  102b31:	8b 45 f4             	mov    -0xc(%ebp),%eax
  102b34:	89 48 10             	mov    %ecx,0x10(%eax)
    ntask->PID = nextPID++;
  102b37:	a1 a0 51 10 00       	mov    0x1051a0,%eax
  102b3c:	89 c1                	mov    %eax,%ecx
  102b3e:	81 c1 01 00 00 00    	add    $0x1,%ecx
  102b44:	89 0d a0 51 10 00    	mov    %ecx,0x1051a0
  102b4a:	8b 4d f4             	mov    -0xc(%ebp),%ecx
  102b4d:	89 01                	mov    %eax,(%ecx)

    ntask->next = (void*) 0;
  102b4f:	8b 45 f4             	mov    -0xc(%ebp),%eax
  102b52:	c7 40 08 00 00 00 00 	movl   $0x0,0x8(%eax)
    ntask->prev = (void*) 0;
  102b59:	8b 45 f4             	mov    -0xc(%ebp),%eax
  102b5c:	c7 40 0c 00 00 00 00 	movl   $0x0,0xc(%eax)

    if (first_task == 0) {
  102b63:	81 3d 28 84 10 00 00 	cmpl   $0x0,0x108428
  102b6a:	00 00 00 
  102b6d:	0f 85 0d 00 00 00    	jne    102b80 <init_task+0xa0>
        first_task = ntask;
  102b73:	8b 45 f4             	mov    -0xc(%ebp),%eax
  102b76:	a3 28 84 10 00       	mov    %eax,0x108428
    } else {
  102b7b:	e9 1f 00 00 00       	jmp    102b9f <init_task+0xbf>
        ntask->next = first_task;
  102b80:	a1 28 84 10 00       	mov    0x108428,%eax
  102b85:	8b 4d f4             	mov    -0xc(%ebp),%ecx
  102b88:	89 41 08             	mov    %eax,0x8(%ecx)
        first_task->prev = ntask;
  102b8b:	8b 45 f4             	mov    -0xc(%ebp),%eax
  102b8e:	8b 0d 28 84 10 00    	mov    0x108428,%ecx
  102b94:	89 41 0c             	mov    %eax,0xc(%ecx)
        first_task = ntask;
  102b97:	8b 45 f4             	mov    -0xc(%ebp),%eax
  102b9a:	a3 28 84 10 00       	mov    %eax,0x108428
    }

    uint32_t rest_pdir = vmm_get_current_pagedir();
  102b9f:	e8 9c 14 00 00       	call   104040 <vmm_get_current_pagedir>
  102ba4:	89 45 f0             	mov    %eax,-0x10(%ebp)
    vmm_activate_pagedir(task_pagedir);
  102ba7:	8b 45 fc             	mov    -0x4(%ebp),%eax
  102baa:	89 04 24             	mov    %eax,(%esp)
  102bad:	e8 ce 1f 00 00       	call   104b80 <vmm_activate_pagedir>

    if (entry != 0) { //entry == 0 means that this will be forked
  102bb2:	81 7d f8 00 00 00 00 	cmpl   $0x0,-0x8(%ebp)
  102bb9:	0f 84 21 00 00 00    	je     102be0 <init_task+0x100>
  102bbf:	b8 00 00 00 00       	mov    $0x0,%eax
        vmm_alloc_addr(ntask->user_stack_bottom, 0);
  102bc4:	8b 4d f4             	mov    -0xc(%ebp),%ecx
  102bc7:	8b 49 10             	mov    0x10(%ecx),%ecx
  102bca:	89 0c 24             	mov    %ecx,(%esp)
  102bcd:	c7 44 24 04 00 00 00 	movl   $0x0,0x4(%esp)
  102bd4:	00 
  102bd5:	89 45 ac             	mov    %eax,-0x54(%ebp)
  102bd8:	e8 a3 1e 00 00       	call   104a80 <vmm_alloc_addr>
  102bdd:	89 45 a8             	mov    %eax,-0x58(%ebp)
  102be0:	b8 38 00 00 00       	mov    $0x38,%eax
  102be5:	8d 4d b8             	lea    -0x48(%ebp),%ecx
    }

    struct cpu_state nstate = { .eax = 0, .ebx = 0, .ecx = 0, .edx = 0,
  102be8:	c7 45 b8 00 00 00 00 	movl   $0x0,-0x48(%ebp)
  102bef:	c7 45 bc 00 00 00 00 	movl   $0x0,-0x44(%ebp)
  102bf6:	c7 45 c0 00 00 00 00 	movl   $0x0,-0x40(%ebp)
  102bfd:	c7 45 c4 00 00 00 00 	movl   $0x0,-0x3c(%ebp)
  102c04:	c7 45 c8 00 00 00 00 	movl   $0x0,-0x38(%ebp)
  102c0b:	c7 45 cc 00 00 00 00 	movl   $0x0,-0x34(%ebp)
  102c12:	c7 45 d0 00 00 00 00 	movl   $0x0,-0x30(%ebp)
  102c19:	c7 45 d4 00 00 00 00 	movl   $0x0,-0x2c(%ebp)
  102c20:	c7 45 d8 00 00 00 00 	movl   $0x0,-0x28(%ebp)
  102c27:	8b 55 f8             	mov    -0x8(%ebp),%edx
  102c2a:	89 55 dc             	mov    %edx,-0x24(%ebp)
  102c2d:	c7 45 e0 1b 00 00 00 	movl   $0x1b,-0x20(%ebp)
  102c34:	c7 45 e4 00 02 00 00 	movl   $0x200,-0x1c(%ebp)
  102c3b:	8b 55 f4             	mov    -0xc(%ebp),%edx
  102c3e:	8b 52 10             	mov    0x10(%edx),%edx
  102c41:	81 c2 00 10 00 00    	add    $0x1000,%edx
  102c47:	89 55 e8             	mov    %edx,-0x18(%ebp)
  102c4a:	c7 45 ec 23 00 00 00 	movl   $0x23,-0x14(%ebp)
            /* Ring-3-Segmentregister */
            .cs = 0x18 | 0x03, .ss = 0x20 | 0x03,

            .eflags = 0x200, };

    memcpy(ntask->cpuState, &nstate, sizeof(struct cpu_state));
  102c51:	8b 55 f4             	mov    -0xc(%ebp),%edx
  102c54:	8b 52 04             	mov    0x4(%edx),%edx
  102c57:	89 14 24             	mov    %edx,(%esp)
  102c5a:	89 4c 24 04          	mov    %ecx,0x4(%esp)
  102c5e:	c7 44 24 08 38 00 00 	movl   $0x38,0x8(%esp)
  102c65:	00 
  102c66:	89 45 a4             	mov    %eax,-0x5c(%ebp)
  102c69:	e8 e2 07 00 00       	call   103450 <memcpy>

    vmm_activate_pagedir(rest_pdir);
  102c6e:	8b 45 f0             	mov    -0x10(%ebp),%eax
  102c71:	89 04 24             	mov    %eax,(%esp)
  102c74:	e8 07 1f 00 00       	call   104b80 <vmm_activate_pagedir>

    return ntask;
  102c79:	8b 45 f4             	mov    -0xc(%ebp),%eax
  102c7c:	83 c4 68             	add    $0x68,%esp
  102c7f:	5d                   	pop    %ebp
  102c80:	c3                   	ret    
  102c81:	66 66 66 66 66 66 2e 	data32 data32 data32 data32 data32 nopw %cs:0x0(%eax,%eax,1)
  102c88:	0f 1f 84 00 00 00 00 
  102c8f:	00 

00102c90 <save_cpu_state>:
}

void save_cpu_state(struct cpu_state* cpu) {
  102c90:	55                   	push   %ebp
  102c91:	89 e5                	mov    %esp,%ebp
  102c93:	83 ec 18             	sub    $0x18,%esp
  102c96:	8b 45 08             	mov    0x8(%ebp),%eax
  102c99:	b9 38 00 00 00       	mov    $0x38,%ecx
  102c9e:	89 45 fc             	mov    %eax,-0x4(%ebp)
    memcpy(current_task->cpuState, cpu, sizeof(struct cpu_state));
  102ca1:	a1 2c 84 10 00       	mov    0x10842c,%eax
  102ca6:	8b 40 04             	mov    0x4(%eax),%eax
  102ca9:	8b 55 fc             	mov    -0x4(%ebp),%edx
  102cac:	89 04 24             	mov    %eax,(%esp)
  102caf:	89 54 24 04          	mov    %edx,0x4(%esp)
  102cb3:	c7 44 24 08 38 00 00 	movl   $0x38,0x8(%esp)
  102cba:	00 
  102cbb:	89 4d f8             	mov    %ecx,-0x8(%ebp)
  102cbe:	e8 8d 07 00 00       	call   103450 <memcpy>
}
  102cc3:	83 c4 18             	add    $0x18,%esp
  102cc6:	5d                   	pop    %ebp
  102cc7:	c3                   	ret    
  102cc8:	0f 1f 84 00 00 00 00 	nopl   0x0(%eax,%eax,1)
  102ccf:	00 

00102cd0 <schedule>:

struct cpu_state* schedule(struct cpu_state* cpu) {
  102cd0:	55                   	push   %ebp
  102cd1:	89 e5                	mov    %esp,%ebp
  102cd3:	83 ec 18             	sub    $0x18,%esp
  102cd6:	8b 45 08             	mov    0x8(%ebp),%eax
  102cd9:	89 45 f8             	mov    %eax,-0x8(%ebp)
    if (first_task != 0 && schedulingEnabled) {
  102cdc:	81 3d 28 84 10 00 00 	cmpl   $0x0,0x108428
  102ce3:	00 00 00 
  102ce6:	0f 84 9d 00 00 00    	je     102d89 <schedule+0xb9>
  102cec:	81 3d 24 84 10 00 00 	cmpl   $0x0,0x108424
  102cf3:	00 00 00 
  102cf6:	0f 84 8d 00 00 00    	je     102d89 <schedule+0xb9>
        if (current_task == 0) {
  102cfc:	81 3d 2c 84 10 00 00 	cmpl   $0x0,0x10842c
  102d03:	00 00 00 
  102d06:	0f 85 2a 00 00 00    	jne    102d36 <schedule+0x66>
            current_task = first_task;
  102d0c:	a1 28 84 10 00       	mov    0x108428,%eax
  102d11:	a3 2c 84 10 00       	mov    %eax,0x10842c
            vmm_activate_pagedir(current_task->phys_pdir);
  102d16:	a1 2c 84 10 00       	mov    0x10842c,%eax
  102d1b:	8b 40 14             	mov    0x14(%eax),%eax
  102d1e:	89 04 24             	mov    %eax,(%esp)
  102d21:	e8 5a 1e 00 00       	call   104b80 <vmm_activate_pagedir>
            return current_task->cpuState;
  102d26:	a1 2c 84 10 00       	mov    0x10842c,%eax
  102d2b:	8b 40 04             	mov    0x4(%eax),%eax
  102d2e:	89 45 fc             	mov    %eax,-0x4(%ebp)
  102d31:	e9 59 00 00 00       	jmp    102d8f <schedule+0xbf>
        }

        struct task* next = current_task->next;
  102d36:	a1 2c 84 10 00       	mov    0x10842c,%eax
  102d3b:	8b 40 08             	mov    0x8(%eax),%eax
  102d3e:	89 45 f4             	mov    %eax,-0xc(%ebp)
        if (next == 0)
  102d41:	81 7d f4 00 00 00 00 	cmpl   $0x0,-0xc(%ebp)
  102d48:	0f 85 08 00 00 00    	jne    102d56 <schedule+0x86>
            next = first_task;
  102d4e:	a1 28 84 10 00       	mov    0x108428,%eax
  102d53:	89 45 f4             	mov    %eax,-0xc(%ebp)

        save_cpu_state(cpu);
  102d56:	8b 45 f8             	mov    -0x8(%ebp),%eax
  102d59:	89 04 24             	mov    %eax,(%esp)
  102d5c:	e8 2f ff ff ff       	call   102c90 <save_cpu_state>

        current_task = next;
  102d61:	8b 45 f4             	mov    -0xc(%ebp),%eax
  102d64:	a3 2c 84 10 00       	mov    %eax,0x10842c
        vmm_activate_pagedir(current_task->phys_pdir);
  102d69:	a1 2c 84 10 00       	mov    0x10842c,%eax
  102d6e:	8b 40 14             	mov    0x14(%eax),%eax
  102d71:	89 04 24             	mov    %eax,(%esp)
  102d74:	e8 07 1e 00 00       	call   104b80 <vmm_activate_pagedir>
        return current_task->cpuState;
  102d79:	a1 2c 84 10 00       	mov    0x10842c,%eax
  102d7e:	8b 40 04             	mov    0x4(%eax),%eax
  102d81:	89 45 fc             	mov    %eax,-0x4(%ebp)
  102d84:	e9 06 00 00 00       	jmp    102d8f <schedule+0xbf>
    }
    return cpu;
  102d89:	8b 45 f8             	mov    -0x8(%ebp),%eax
  102d8c:	89 45 fc             	mov    %eax,-0x4(%ebp)
}
  102d8f:	8b 45 fc             	mov    -0x4(%ebp),%eax
  102d92:	83 c4 18             	add    $0x18,%esp
  102d95:	5d                   	pop    %ebp
  102d96:	c3                   	ret    
  102d97:	66 90                	xchg   %ax,%ax
  102d99:	66 90                	xchg   %ax,%ax
  102d9b:	66 90                	xchg   %ax,%ax
  102d9d:	66 90                	xchg   %ax,%ax
  102d9f:	90                   	nop

00102da0 <malloc>:
    }

    append_to_list(&first_free, tf);
}

void* malloc(size_t size) {
  102da0:	55                   	push   %ebp
  102da1:	89 e5                	mov    %esp,%ebp
  102da3:	83 ec 38             	sub    $0x38,%esp
  102da6:	8b 45 08             	mov    0x8(%ebp),%eax
  102da9:	89 45 f8             	mov    %eax,-0x8(%ebp)
    struct memory_node* last = 0;
  102dac:	c7 45 f4 00 00 00 00 	movl   $0x0,-0xc(%ebp)
    struct memory_node* cur = first_free;
  102db3:	a1 38 84 10 00       	mov    0x108438,%eax
  102db8:	89 45 f0             	mov    %eax,-0x10(%ebp)

    while (cur != 0) {
  102dbb:	81 7d f0 00 00 00 00 	cmpl   $0x0,-0x10(%ebp)
  102dc2:	0f 84 27 00 00 00    	je     102def <malloc+0x4f>
        if (cur->size >= size) {
  102dc8:	8b 45 f0             	mov    -0x10(%ebp),%eax
  102dcb:	8b 00                	mov    (%eax),%eax
  102dcd:	3b 45 f8             	cmp    -0x8(%ebp),%eax
  102dd0:	0f 82 05 00 00 00    	jb     102ddb <malloc+0x3b>
            break;
  102dd6:	e9 14 00 00 00       	jmp    102def <malloc+0x4f>
        }
        last = cur;
  102ddb:	8b 45 f0             	mov    -0x10(%ebp),%eax
  102dde:	89 45 f4             	mov    %eax,-0xc(%ebp)
        cur = cur->next;
  102de1:	8b 45 f0             	mov    -0x10(%ebp),%eax
  102de4:	8b 40 08             	mov    0x8(%eax),%eax
  102de7:	89 45 f0             	mov    %eax,-0x10(%ebp)
    }
  102dea:	e9 cc ff ff ff       	jmp    102dbb <malloc+0x1b>

    if (cur == 0) {
  102def:	81 7d f0 00 00 00 00 	cmpl   $0x0,-0x10(%ebp)
  102df6:	0f 85 be 00 00 00    	jne    102eba <malloc+0x11a>
        uint32_t pgs = size / PAGESIZE;
  102dfc:	8b 45 f8             	mov    -0x8(%ebp),%eax
  102dff:	c1 e8 0c             	shr    $0xc,%eax
  102e02:	89 45 ec             	mov    %eax,-0x14(%ebp)

        if ((size % PAGESIZE) != 0)
  102e05:	8b 45 f8             	mov    -0x8(%ebp),%eax
  102e08:	25 ff 0f 00 00       	and    $0xfff,%eax
  102e0d:	3d 00 00 00 00       	cmp    $0x0,%eax
  102e12:	0f 84 0b 00 00 00    	je     102e23 <malloc+0x83>
            pgs++;
  102e18:	8b 45 ec             	mov    -0x14(%ebp),%eax
  102e1b:	05 01 00 00 00       	add    $0x1,%eax
  102e20:	89 45 ec             	mov    %eax,-0x14(%ebp)

        void* addr = vmm_alloc_cont(pgs);
  102e23:	8b 45 ec             	mov    -0x14(%ebp),%eax
  102e26:	89 04 24             	mov    %eax,(%esp)
  102e29:	e8 02 1c 00 00       	call   104a30 <vmm_alloc_cont>
  102e2e:	89 45 e8             	mov    %eax,-0x18(%ebp)

        struct memory_node* fill = pop_unused_node();
  102e31:	e8 7a 04 00 00       	call   1032b0 <pop_unused_node>
  102e36:	89 45 e4             	mov    %eax,-0x1c(%ebp)

        fill->address = (uint32_t) addr;
  102e39:	8b 45 e8             	mov    -0x18(%ebp),%eax
  102e3c:	8b 4d e4             	mov    -0x1c(%ebp),%ecx
  102e3f:	89 41 04             	mov    %eax,0x4(%ecx)
        fill->size = (uint32_t) size;
  102e42:	8b 45 f8             	mov    -0x8(%ebp),%eax
  102e45:	8b 4d e4             	mov    -0x1c(%ebp),%ecx
  102e48:	89 01                	mov    %eax,(%ecx)

        if (pgs * PAGESIZE > size) {
  102e4a:	8b 45 ec             	mov    -0x14(%ebp),%eax
  102e4d:	c1 e0 0c             	shl    $0xc,%eax
  102e50:	3b 45 f8             	cmp    -0x8(%ebp),%eax
  102e53:	0f 86 3e 00 00 00    	jbe    102e97 <malloc+0xf7>
            struct memory_node* free = pop_unused_node();
  102e59:	e8 52 04 00 00       	call   1032b0 <pop_unused_node>
  102e5e:	8d 0d 38 84 10 00    	lea    0x108438,%ecx
  102e64:	89 45 e0             	mov    %eax,-0x20(%ebp)

            free->address = fill->address + fill->size;
  102e67:	8b 45 e4             	mov    -0x1c(%ebp),%eax
  102e6a:	8b 40 04             	mov    0x4(%eax),%eax
  102e6d:	8b 55 e4             	mov    -0x1c(%ebp),%edx
  102e70:	03 02                	add    (%edx),%eax
  102e72:	8b 55 e0             	mov    -0x20(%ebp),%edx
  102e75:	89 42 04             	mov    %eax,0x4(%edx)
            free->size = size - pgs * PAGESIZE;
  102e78:	8b 45 f8             	mov    -0x8(%ebp),%eax
  102e7b:	8b 55 ec             	mov    -0x14(%ebp),%edx
  102e7e:	c1 e2 0c             	shl    $0xc,%edx
  102e81:	29 d0                	sub    %edx,%eax
  102e83:	8b 55 e0             	mov    -0x20(%ebp),%edx
  102e86:	89 02                	mov    %eax,(%edx)

            append_to_list(&first_free, free);
  102e88:	8b 45 e0             	mov    -0x20(%ebp),%eax
  102e8b:	89 0c 24             	mov    %ecx,(%esp)
  102e8e:	89 44 24 04          	mov    %eax,0x4(%esp)
  102e92:	e8 b9 00 00 00       	call   102f50 <append_to_list>
  102e97:	8d 05 34 84 10 00    	lea    0x108434,%eax
        }

        append_to_list(&first_used, fill);
  102e9d:	8b 4d e4             	mov    -0x1c(%ebp),%ecx
  102ea0:	89 04 24             	mov    %eax,(%esp)
  102ea3:	89 4c 24 04          	mov    %ecx,0x4(%esp)
  102ea7:	e8 a4 00 00 00       	call   102f50 <append_to_list>

        return (void*) fill->address;
  102eac:	8b 45 e4             	mov    -0x1c(%ebp),%eax
  102eaf:	8b 40 04             	mov    0x4(%eax),%eax
  102eb2:	89 45 fc             	mov    %eax,-0x4(%ebp)
  102eb5:	e9 8c 00 00 00       	jmp    102f46 <malloc+0x1a6>
    } else {
        uint32_t freesize = size - cur->size;
  102eba:	8b 45 f8             	mov    -0x8(%ebp),%eax
  102ebd:	8b 4d f0             	mov    -0x10(%ebp),%ecx
  102ec0:	8b 09                	mov    (%ecx),%ecx
  102ec2:	29 c8                	sub    %ecx,%eax
  102ec4:	89 45 dc             	mov    %eax,-0x24(%ebp)

        cur->size = size;
  102ec7:	8b 45 f8             	mov    -0x8(%ebp),%eax
  102eca:	8b 4d f0             	mov    -0x10(%ebp),%ecx
  102ecd:	89 01                	mov    %eax,(%ecx)

        remove_from_list(&first_free, cur);
  102ecf:	8b 45 f0             	mov    -0x10(%ebp),%eax
  102ed2:	89 e1                	mov    %esp,%ecx
  102ed4:	89 41 04             	mov    %eax,0x4(%ecx)
  102ed7:	c7 01 38 84 10 00    	movl   $0x108438,(%ecx)
  102edd:	e8 9e 00 00 00       	call   102f80 <remove_from_list>
        append_to_list(&first_used, cur);
  102ee2:	8b 45 f0             	mov    -0x10(%ebp),%eax
  102ee5:	89 e1                	mov    %esp,%ecx
  102ee7:	89 41 04             	mov    %eax,0x4(%ecx)
  102eea:	c7 01 34 84 10 00    	movl   $0x108434,(%ecx)
  102ef0:	e8 5b 00 00 00       	call   102f50 <append_to_list>

        if (free > 0) {
  102ef5:	b8 10 30 10 00       	mov    $0x103010,%eax
  102efa:	85 c0                	test   %eax,%eax
  102efc:	0f 84 3b 00 00 00    	je     102f3d <malloc+0x19d>
  102f02:	e9 00 00 00 00       	jmp    102f07 <malloc+0x167>
            struct memory_node* free = pop_unused_node();
  102f07:	e8 a4 03 00 00       	call   1032b0 <pop_unused_node>
  102f0c:	8d 0d 38 84 10 00    	lea    0x108438,%ecx
  102f12:	89 45 d8             	mov    %eax,-0x28(%ebp)

            free->address = cur->address + cur->size;
  102f15:	8b 45 f0             	mov    -0x10(%ebp),%eax
  102f18:	8b 40 04             	mov    0x4(%eax),%eax
  102f1b:	8b 55 f0             	mov    -0x10(%ebp),%edx
  102f1e:	03 02                	add    (%edx),%eax
  102f20:	8b 55 d8             	mov    -0x28(%ebp),%edx
  102f23:	89 42 04             	mov    %eax,0x4(%edx)
            free->size = freesize;
  102f26:	8b 45 dc             	mov    -0x24(%ebp),%eax
  102f29:	8b 55 d8             	mov    -0x28(%ebp),%edx
  102f2c:	89 02                	mov    %eax,(%edx)

            append_to_list(&first_free, free);
  102f2e:	8b 45 d8             	mov    -0x28(%ebp),%eax
  102f31:	89 0c 24             	mov    %ecx,(%esp)
  102f34:	89 44 24 04          	mov    %eax,0x4(%esp)
  102f38:	e8 13 00 00 00       	call   102f50 <append_to_list>
        }

        return (void*) cur->address;
  102f3d:	8b 45 f0             	mov    -0x10(%ebp),%eax
  102f40:	8b 40 04             	mov    0x4(%eax),%eax
  102f43:	89 45 fc             	mov    %eax,-0x4(%ebp)
    }
}
  102f46:	8b 45 fc             	mov    -0x4(%ebp),%eax
  102f49:	83 c4 38             	add    $0x38,%esp
  102f4c:	5d                   	pop    %ebp
  102f4d:	c3                   	ret    
  102f4e:	66 90                	xchg   %ax,%ax

00102f50 <append_to_list>:
        cur = cur->next;
    }
}

static void append_to_list(struct memory_node** root,
        struct memory_node* element) {
  102f50:	55                   	push   %ebp
  102f51:	89 e5                	mov    %esp,%ebp
  102f53:	83 ec 08             	sub    $0x8,%esp
  102f56:	8b 45 0c             	mov    0xc(%ebp),%eax
  102f59:	8b 4d 08             	mov    0x8(%ebp),%ecx
  102f5c:	89 4d fc             	mov    %ecx,-0x4(%ebp)
  102f5f:	89 45 f8             	mov    %eax,-0x8(%ebp)
    element->next = *root;
  102f62:	8b 45 fc             	mov    -0x4(%ebp),%eax
  102f65:	8b 00                	mov    (%eax),%eax
  102f67:	8b 4d f8             	mov    -0x8(%ebp),%ecx
  102f6a:	89 41 08             	mov    %eax,0x8(%ecx)
    *root = element;
  102f6d:	8b 45 f8             	mov    -0x8(%ebp),%eax
  102f70:	8b 4d fc             	mov    -0x4(%ebp),%ecx
  102f73:	89 01                	mov    %eax,(%ecx)
}
  102f75:	83 c4 08             	add    $0x8,%esp
  102f78:	5d                   	pop    %ebp
  102f79:	c3                   	ret    
  102f7a:	66 0f 1f 44 00 00    	nopw   0x0(%eax,%eax,1)

00102f80 <remove_from_list>:
struct memory_node* first_unused = 0;
struct memory_node* first_used = 0;
struct memory_node* first_free = 0;

static void remove_from_list(struct memory_node** root,
        struct memory_node* element) {
  102f80:	55                   	push   %ebp
  102f81:	89 e5                	mov    %esp,%ebp
  102f83:	83 ec 10             	sub    $0x10,%esp
  102f86:	8b 45 0c             	mov    0xc(%ebp),%eax
  102f89:	8b 4d 08             	mov    0x8(%ebp),%ecx
  102f8c:	89 4d fc             	mov    %ecx,-0x4(%ebp)
  102f8f:	89 45 f8             	mov    %eax,-0x8(%ebp)
    struct memory_node* last = 0;
  102f92:	c7 45 f4 00 00 00 00 	movl   $0x0,-0xc(%ebp)
    struct memory_node* cur = *root;
  102f99:	8b 45 fc             	mov    -0x4(%ebp),%eax
  102f9c:	8b 00                	mov    (%eax),%eax
  102f9e:	89 45 f0             	mov    %eax,-0x10(%ebp)

    while (cur != 0) {
  102fa1:	81 7d f0 00 00 00 00 	cmpl   $0x0,-0x10(%ebp)
  102fa8:	0f 84 4e 00 00 00    	je     102ffc <remove_from_list+0x7c>
        if (cur == element) {
  102fae:	8b 45 f0             	mov    -0x10(%ebp),%eax
  102fb1:	3b 45 f8             	cmp    -0x8(%ebp),%eax
  102fb4:	0f 85 2e 00 00 00    	jne    102fe8 <remove_from_list+0x68>
            if (last == 0) {
  102fba:	81 7d f4 00 00 00 00 	cmpl   $0x0,-0xc(%ebp)
  102fc1:	0f 85 10 00 00 00    	jne    102fd7 <remove_from_list+0x57>
                *root = cur->next;
  102fc7:	8b 45 f0             	mov    -0x10(%ebp),%eax
  102fca:	8b 40 08             	mov    0x8(%eax),%eax
  102fcd:	8b 4d fc             	mov    -0x4(%ebp),%ecx
  102fd0:	89 01                	mov    %eax,(%ecx)
                return;
  102fd2:	e9 25 00 00 00       	jmp    102ffc <remove_from_list+0x7c>
            } else {
                last->next = cur->next;
  102fd7:	8b 45 f0             	mov    -0x10(%ebp),%eax
  102fda:	8b 40 08             	mov    0x8(%eax),%eax
  102fdd:	8b 4d f4             	mov    -0xc(%ebp),%ecx
  102fe0:	89 41 08             	mov    %eax,0x8(%ecx)
                return;
  102fe3:	e9 14 00 00 00       	jmp    102ffc <remove_from_list+0x7c>
            }
        }
        last = cur;
  102fe8:	8b 45 f0             	mov    -0x10(%ebp),%eax
  102feb:	89 45 f4             	mov    %eax,-0xc(%ebp)
        cur = cur->next;
  102fee:	8b 45 f0             	mov    -0x10(%ebp),%eax
  102ff1:	8b 40 08             	mov    0x8(%eax),%eax
  102ff4:	89 45 f0             	mov    %eax,-0x10(%ebp)
    }
  102ff7:	e9 a5 ff ff ff       	jmp    102fa1 <remove_from_list+0x21>
}
  102ffc:	83 c4 10             	add    $0x10,%esp
  102fff:	5d                   	pop    %ebp
  103000:	c3                   	ret    
  103001:	66 66 66 66 66 66 2e 	data32 data32 data32 data32 data32 nopw %cs:0x0(%eax,%eax,1)
  103008:	0f 1f 84 00 00 00 00 
  10300f:	00 

00103010 <free>:
        cur = cur->next;
    }
    return 0;
}

void free(void* ptr) {
  103010:	55                   	push   %ebp
  103011:	89 e5                	mov    %esp,%ebp
  103013:	83 ec 18             	sub    $0x18,%esp
  103016:	8b 45 08             	mov    0x8(%ebp),%eax
  103019:	89 45 fc             	mov    %eax,-0x4(%ebp)
    struct memory_node* last = 0;
  10301c:	c7 45 f8 00 00 00 00 	movl   $0x0,-0x8(%ebp)
    struct memory_node* cur = first_used;
  103023:	a1 34 84 10 00       	mov    0x108434,%eax
  103028:	89 45 f4             	mov    %eax,-0xc(%ebp)

    while (cur != 0) {
  10302b:	81 7d f4 00 00 00 00 	cmpl   $0x0,-0xc(%ebp)
  103032:	0f 84 35 00 00 00    	je     10306d <free+0x5d>
        if (cur->address == (uint32_t) ptr) {
  103038:	8b 45 f4             	mov    -0xc(%ebp),%eax
  10303b:	8b 40 04             	mov    0x4(%eax),%eax
  10303e:	8b 4d fc             	mov    -0x4(%ebp),%ecx
  103041:	39 c8                	cmp    %ecx,%eax
  103043:	0f 85 10 00 00 00    	jne    103059 <free+0x49>
            merge_into_frees(cur);
  103049:	8b 45 f4             	mov    -0xc(%ebp),%eax
  10304c:	89 04 24             	mov    %eax,(%esp)
  10304f:	e8 6c 01 00 00       	call   1031c0 <merge_into_frees>
            break;
  103054:	e9 14 00 00 00       	jmp    10306d <free+0x5d>
        }
        last = cur;
  103059:	8b 45 f4             	mov    -0xc(%ebp),%eax
  10305c:	89 45 f8             	mov    %eax,-0x8(%ebp)
        cur = cur->next;
  10305f:	8b 45 f4             	mov    -0xc(%ebp),%eax
  103062:	8b 40 08             	mov    0x8(%eax),%eax
  103065:	89 45 f4             	mov    %eax,-0xc(%ebp)
    }
  103068:	e9 be ff ff ff       	jmp    10302b <free+0x1b>
}
  10306d:	83 c4 18             	add    $0x18,%esp
  103070:	5d                   	pop    %ebp
  103071:	c3                   	ret    
  103072:	66 66 66 66 66 2e 0f 	data32 data32 data32 data32 nopw %cs:0x0(%eax,%eax,1)
  103079:	1f 84 00 00 00 00 00 

00103080 <calloc>:

        return (void*) cur->address;
    }
}

void* calloc(size_t num, size_t size) {
  103080:	55                   	push   %ebp
  103081:	89 e5                	mov    %esp,%ebp
  103083:	83 ec 28             	sub    $0x28,%esp
  103086:	8b 45 0c             	mov    0xc(%ebp),%eax
  103089:	8b 4d 08             	mov    0x8(%ebp),%ecx
  10308c:	89 4d fc             	mov    %ecx,-0x4(%ebp)
  10308f:	89 45 f8             	mov    %eax,-0x8(%ebp)
    size_t gsize = num * size;
  103092:	8b 45 fc             	mov    -0x4(%ebp),%eax
  103095:	0f af 45 f8          	imul   -0x8(%ebp),%eax
  103099:	89 45 f4             	mov    %eax,-0xc(%ebp)
    void* p = malloc(gsize);
  10309c:	8b 45 f4             	mov    -0xc(%ebp),%eax
  10309f:	89 04 24             	mov    %eax,(%esp)
  1030a2:	e8 f9 fc ff ff       	call   102da0 <malloc>
  1030a7:	89 45 f0             	mov    %eax,-0x10(%ebp)

    if (p != 0) {
  1030aa:	81 7d f0 00 00 00 00 	cmpl   $0x0,-0x10(%ebp)
  1030b1:	0f 84 22 00 00 00    	je     1030d9 <calloc+0x59>
  1030b7:	b8 00 00 00 00       	mov    $0x0,%eax
        memset(p, 0, gsize);
  1030bc:	8b 4d f0             	mov    -0x10(%ebp),%ecx
  1030bf:	8b 55 f4             	mov    -0xc(%ebp),%edx
  1030c2:	89 0c 24             	mov    %ecx,(%esp)
  1030c5:	c7 44 24 04 00 00 00 	movl   $0x0,0x4(%esp)
  1030cc:	00 
  1030cd:	89 54 24 08          	mov    %edx,0x8(%esp)
  1030d1:	89 45 ec             	mov    %eax,-0x14(%ebp)
  1030d4:	e8 17 03 00 00       	call   1033f0 <memset>
    }

    return p;
  1030d9:	8b 45 f0             	mov    -0x10(%ebp),%eax
  1030dc:	83 c4 28             	add    $0x28,%esp
  1030df:	5d                   	pop    %ebp
  1030e0:	c3                   	ret    
  1030e1:	66 66 66 66 66 66 2e 	data32 data32 data32 data32 data32 nopw %cs:0x0(%eax,%eax,1)
  1030e8:	0f 1f 84 00 00 00 00 
  1030ef:	00 

001030f0 <realloc>:
}

void* realloc(void* ptr, size_t size) {
  1030f0:	55                   	push   %ebp
  1030f1:	89 e5                	mov    %esp,%ebp
  1030f3:	83 ec 28             	sub    $0x28,%esp
  1030f6:	8b 45 0c             	mov    0xc(%ebp),%eax
  1030f9:	8b 4d 08             	mov    0x8(%ebp),%ecx
  1030fc:	89 4d f8             	mov    %ecx,-0x8(%ebp)
  1030ff:	89 45 f4             	mov    %eax,-0xc(%ebp)
    struct memory_node* last = 0;
  103102:	c7 45 f0 00 00 00 00 	movl   $0x0,-0x10(%ebp)
    struct memory_node* cur = first_used;
  103109:	a1 34 84 10 00       	mov    0x108434,%eax
  10310e:	89 45 ec             	mov    %eax,-0x14(%ebp)

    while (cur != 0) {
  103111:	81 7d ec 00 00 00 00 	cmpl   $0x0,-0x14(%ebp)
  103118:	0f 84 8e 00 00 00    	je     1031ac <realloc+0xbc>
        if (cur->address == (uint32_t) ptr) {
  10311e:	8b 45 ec             	mov    -0x14(%ebp),%eax
  103121:	8b 40 04             	mov    0x4(%eax),%eax
  103124:	8b 4d f8             	mov    -0x8(%ebp),%ecx
  103127:	39 c8                	cmp    %ecx,%eax
  103129:	0f 85 69 00 00 00    	jne    103198 <realloc+0xa8>
            if (size == 0) {
  10312f:	81 7d f4 00 00 00 00 	cmpl   $0x0,-0xc(%ebp)
  103136:	0f 85 17 00 00 00    	jne    103153 <realloc+0x63>
                free(ptr);
  10313c:	8b 45 f8             	mov    -0x8(%ebp),%eax
  10313f:	89 04 24             	mov    %eax,(%esp)
  103142:	e8 c9 fe ff ff       	call   103010 <free>
                return 0;
  103147:	c7 45 fc 00 00 00 00 	movl   $0x0,-0x4(%ebp)
  10314e:	e9 60 00 00 00       	jmp    1031b3 <realloc+0xc3>
            } else {
                void* new = malloc(size);
  103153:	8b 45 f4             	mov    -0xc(%ebp),%eax
  103156:	89 04 24             	mov    %eax,(%esp)
  103159:	e8 42 fc ff ff       	call   102da0 <malloc>
  10315e:	89 45 e8             	mov    %eax,-0x18(%ebp)
                memcpy(new, (void*) cur->address, cur->size);
  103161:	8b 45 e8             	mov    -0x18(%ebp),%eax
  103164:	8b 4d ec             	mov    -0x14(%ebp),%ecx
  103167:	8b 49 04             	mov    0x4(%ecx),%ecx
  10316a:	8b 55 ec             	mov    -0x14(%ebp),%edx
  10316d:	8b 12                	mov    (%edx),%edx
  10316f:	89 04 24             	mov    %eax,(%esp)
  103172:	89 4c 24 04          	mov    %ecx,0x4(%esp)
  103176:	89 54 24 08          	mov    %edx,0x8(%esp)
  10317a:	e8 d1 02 00 00       	call   103450 <memcpy>
                free((void*) cur->address);
  10317f:	8b 45 ec             	mov    -0x14(%ebp),%eax
  103182:	8b 40 04             	mov    0x4(%eax),%eax
  103185:	89 04 24             	mov    %eax,(%esp)
  103188:	e8 83 fe ff ff       	call   103010 <free>

                return new;
  10318d:	8b 45 e8             	mov    -0x18(%ebp),%eax
  103190:	89 45 fc             	mov    %eax,-0x4(%ebp)
  103193:	e9 1b 00 00 00       	jmp    1031b3 <realloc+0xc3>
            }
        }
        last = cur;
  103198:	8b 45 ec             	mov    -0x14(%ebp),%eax
  10319b:	89 45 f0             	mov    %eax,-0x10(%ebp)
        cur = cur->next;
  10319e:	8b 45 ec             	mov    -0x14(%ebp),%eax
  1031a1:	8b 40 08             	mov    0x8(%eax),%eax
  1031a4:	89 45 ec             	mov    %eax,-0x14(%ebp)
    }
  1031a7:	e9 65 ff ff ff       	jmp    103111 <realloc+0x21>
    return 0;
  1031ac:	c7 45 fc 00 00 00 00 	movl   $0x0,-0x4(%ebp)
}
  1031b3:	8b 45 fc             	mov    -0x4(%ebp),%eax
  1031b6:	83 c4 28             	add    $0x28,%esp
  1031b9:	5d                   	pop    %ebp
  1031ba:	c3                   	ret    
  1031bb:	0f 1f 44 00 00       	nopl   0x0(%eax,%eax,1)

001031c0 <merge_into_frees>:
    }

    return ret;
}

static void merge_into_frees(struct memory_node* tf) {
  1031c0:	55                   	push   %ebp
  1031c1:	89 e5                	mov    %esp,%ebp
  1031c3:	56                   	push   %esi
  1031c4:	83 ec 14             	sub    $0x14,%esp
  1031c7:	8b 45 08             	mov    0x8(%ebp),%eax
  1031ca:	8d 0d 34 84 10 00    	lea    0x108434,%ecx
  1031d0:	89 45 f8             	mov    %eax,-0x8(%ebp)
    remove_from_list(&first_used, tf);
  1031d3:	8b 45 f8             	mov    -0x8(%ebp),%eax
  1031d6:	89 0c 24             	mov    %ecx,(%esp)
  1031d9:	89 44 24 04          	mov    %eax,0x4(%esp)
  1031dd:	e8 9e fd ff ff       	call   102f80 <remove_from_list>

    struct memory_node* last;
    struct memory_node* cur;

    editedList: last = 0;
  1031e2:	c7 45 f4 00 00 00 00 	movl   $0x0,-0xc(%ebp)
    cur = first_free;
  1031e9:	a1 38 84 10 00       	mov    0x108438,%eax
  1031ee:	89 45 f0             	mov    %eax,-0x10(%ebp)

    while (cur != 0) {
  1031f1:	81 7d f0 00 00 00 00 	cmpl   $0x0,-0x10(%ebp)
  1031f8:	0f 84 92 00 00 00    	je     103290 <merge_into_frees+0xd0>
        if (cur->address + cur->size == tf->address) {
  1031fe:	8b 45 f0             	mov    -0x10(%ebp),%eax
  103201:	8b 40 04             	mov    0x4(%eax),%eax
  103204:	8b 4d f0             	mov    -0x10(%ebp),%ecx
  103207:	03 01                	add    (%ecx),%eax
  103209:	8b 4d f8             	mov    -0x8(%ebp),%ecx
  10320c:	3b 41 04             	cmp    0x4(%ecx),%eax
  10320f:	0f 85 26 00 00 00    	jne    10323b <merge_into_frees+0x7b>
  103215:	8d 05 38 84 10 00    	lea    0x108438,%eax
            tf->address = cur->address;
  10321b:	8b 4d f0             	mov    -0x10(%ebp),%ecx
  10321e:	8b 49 04             	mov    0x4(%ecx),%ecx
  103221:	8b 55 f8             	mov    -0x8(%ebp),%edx
  103224:	89 4a 04             	mov    %ecx,0x4(%edx)
            remove_from_list(&first_free, cur);
  103227:	8b 4d f0             	mov    -0x10(%ebp),%ecx
  10322a:	89 04 24             	mov    %eax,(%esp)
  10322d:	89 4c 24 04          	mov    %ecx,0x4(%esp)
  103231:	e8 4a fd ff ff       	call   102f80 <remove_from_list>
            goto editedList;
  103236:	e9 a7 ff ff ff       	jmp    1031e2 <merge_into_frees+0x22>
        }

        if (cur->address == tf->address + tf->size) {
  10323b:	8b 45 f0             	mov    -0x10(%ebp),%eax
  10323e:	8b 40 04             	mov    0x4(%eax),%eax
  103241:	8b 4d f8             	mov    -0x8(%ebp),%ecx
  103244:	8b 49 04             	mov    0x4(%ecx),%ecx
  103247:	8b 55 f8             	mov    -0x8(%ebp),%edx
  10324a:	03 0a                	add    (%edx),%ecx
  10324c:	39 c8                	cmp    %ecx,%eax
  10324e:	0f 85 28 00 00 00    	jne    10327c <merge_into_frees+0xbc>
  103254:	8d 05 38 84 10 00    	lea    0x108438,%eax
            tf->size += cur->size;
  10325a:	8b 4d f0             	mov    -0x10(%ebp),%ecx
  10325d:	8b 09                	mov    (%ecx),%ecx
  10325f:	8b 55 f8             	mov    -0x8(%ebp),%edx
  103262:	8b 32                	mov    (%edx),%esi
  103264:	01 ce                	add    %ecx,%esi
  103266:	89 32                	mov    %esi,(%edx)
            remove_from_list(&first_free, cur);
  103268:	8b 4d f0             	mov    -0x10(%ebp),%ecx
  10326b:	89 04 24             	mov    %eax,(%esp)
  10326e:	89 4c 24 04          	mov    %ecx,0x4(%esp)
  103272:	e8 09 fd ff ff       	call   102f80 <remove_from_list>
            goto editedList;
  103277:	e9 66 ff ff ff       	jmp    1031e2 <merge_into_frees+0x22>
        }

        last = cur;
  10327c:	8b 45 f0             	mov    -0x10(%ebp),%eax
  10327f:	89 45 f4             	mov    %eax,-0xc(%ebp)
        cur = cur->next;
  103282:	8b 45 f0             	mov    -0x10(%ebp),%eax
  103285:	8b 40 08             	mov    0x8(%eax),%eax
  103288:	89 45 f0             	mov    %eax,-0x10(%ebp)
    }
  10328b:	e9 61 ff ff ff       	jmp    1031f1 <merge_into_frees+0x31>
  103290:	8d 05 38 84 10 00    	lea    0x108438,%eax

    append_to_list(&first_free, tf);
  103296:	8b 4d f8             	mov    -0x8(%ebp),%ecx
  103299:	89 04 24             	mov    %eax,(%esp)
  10329c:	89 4c 24 04          	mov    %ecx,0x4(%esp)
  1032a0:	e8 ab fc ff ff       	call   102f50 <append_to_list>
}
  1032a5:	83 c4 14             	add    $0x14,%esp
  1032a8:	5e                   	pop    %esi
  1032a9:	5d                   	pop    %ebp
  1032aa:	c3                   	ret    
  1032ab:	0f 1f 44 00 00       	nopl   0x0(%eax,%eax,1)

001032b0 <pop_unused_node>:
    for (uint32_t i = 1; i < (PAGESIZE / sizeof(struct memory_node)); i++) {
        append_to_list(&first_unused, &(new_nodes[i]));
    }
}

static struct memory_node* pop_unused_node() {
  1032b0:	55                   	push   %ebp
  1032b1:	89 e5                	mov    %esp,%ebp
  1032b3:	83 ec 08             	sub    $0x8,%esp
  1032b6:	8d 05 30 84 10 00    	lea    0x108430,%eax
    struct memory_node* ret = pop_from_list(&first_unused);
  1032bc:	89 04 24             	mov    %eax,(%esp)
  1032bf:	e8 3c 00 00 00       	call   103300 <pop_from_list>
  1032c4:	89 45 fc             	mov    %eax,-0x4(%ebp)

    while (ret == 0) {
  1032c7:	81 7d fc 00 00 00 00 	cmpl   $0x0,-0x4(%ebp)
  1032ce:	0f 85 1b 00 00 00    	jne    1032ef <pop_unused_node+0x3f>
        allocate_unused_nodes();
  1032d4:	e8 77 00 00 00       	call   103350 <allocate_unused_nodes>
  1032d9:	8d 05 30 84 10 00    	lea    0x108430,%eax
        ret = pop_from_list(&first_unused);
  1032df:	89 04 24             	mov    %eax,(%esp)
  1032e2:	e8 19 00 00 00       	call   103300 <pop_from_list>
  1032e7:	89 45 fc             	mov    %eax,-0x4(%ebp)
    }
  1032ea:	e9 d8 ff ff ff       	jmp    1032c7 <pop_unused_node+0x17>

    return ret;
  1032ef:	8b 45 fc             	mov    -0x4(%ebp),%eax
  1032f2:	83 c4 08             	add    $0x8,%esp
  1032f5:	5d                   	pop    %ebp
  1032f6:	c3                   	ret    
  1032f7:	66 0f 1f 84 00 00 00 	nopw   0x0(%eax,%eax,1)
  1032fe:	00 00 

00103300 <pop_from_list>:
        struct memory_node* element) {
    element->next = *root;
    *root = element;
}

static struct memory_node* pop_from_list(struct memory_node** root) {
  103300:	55                   	push   %ebp
  103301:	89 e5                	mov    %esp,%ebp
  103303:	83 ec 18             	sub    $0x18,%esp
  103306:	8b 45 08             	mov    0x8(%ebp),%eax
  103309:	89 45 f8             	mov    %eax,-0x8(%ebp)
    if (*root == 0)
  10330c:	8b 45 f8             	mov    -0x8(%ebp),%eax
  10330f:	81 38 00 00 00 00    	cmpl   $0x0,(%eax)
  103315:	0f 85 0c 00 00 00    	jne    103327 <pop_from_list+0x27>
        return 0;
  10331b:	c7 45 fc 00 00 00 00 	movl   $0x0,-0x4(%ebp)
  103322:	e9 20 00 00 00       	jmp    103347 <pop_from_list+0x47>
    struct memory_node* pop = *root;
  103327:	8b 45 f8             	mov    -0x8(%ebp),%eax
  10332a:	8b 00                	mov    (%eax),%eax
  10332c:	89 45 f4             	mov    %eax,-0xc(%ebp)
    remove_from_list(root, pop);
  10332f:	8b 45 f8             	mov    -0x8(%ebp),%eax
  103332:	8b 4d f4             	mov    -0xc(%ebp),%ecx
  103335:	89 04 24             	mov    %eax,(%esp)
  103338:	89 4c 24 04          	mov    %ecx,0x4(%esp)
  10333c:	e8 3f fc ff ff       	call   102f80 <remove_from_list>
    return pop;
  103341:	8b 45 f4             	mov    -0xc(%ebp),%eax
  103344:	89 45 fc             	mov    %eax,-0x4(%ebp)
}
  103347:	8b 45 fc             	mov    -0x4(%ebp),%eax
  10334a:	83 c4 18             	add    $0x18,%esp
  10334d:	5d                   	pop    %ebp
  10334e:	c3                   	ret    
  10334f:	90                   	nop

00103350 <allocate_unused_nodes>:

static void allocate_unused_nodes() {
  103350:	55                   	push   %ebp
  103351:	89 e5                	mov    %esp,%ebp
  103353:	83 ec 28             	sub    $0x28,%esp
  103356:	b8 01 00 00 00       	mov    $0x1,%eax
    struct memory_node* new_nodes = vmm_alloc_cont(1);
  10335b:	c7 04 24 01 00 00 00 	movl   $0x1,(%esp)
  103362:	89 45 f4             	mov    %eax,-0xc(%ebp)
  103365:	e8 c6 16 00 00       	call   104a30 <vmm_alloc_cont>
  10336a:	b9 00 00 00 00       	mov    $0x0,%ecx
  10336f:	ba 00 10 00 00       	mov    $0x1000,%edx
  103374:	89 45 fc             	mov    %eax,-0x4(%ebp)
    memset(new_nodes, 0, PAGESIZE);
  103377:	8b 45 fc             	mov    -0x4(%ebp),%eax
  10337a:	89 04 24             	mov    %eax,(%esp)
  10337d:	c7 44 24 04 00 00 00 	movl   $0x0,0x4(%esp)
  103384:	00 
  103385:	c7 44 24 08 00 10 00 	movl   $0x1000,0x8(%esp)
  10338c:	00 
  10338d:	89 55 f0             	mov    %edx,-0x10(%ebp)
  103390:	89 4d ec             	mov    %ecx,-0x14(%ebp)
  103393:	e8 58 00 00 00       	call   1033f0 <memset>

    for (uint32_t i = 1; i < (PAGESIZE / sizeof(struct memory_node)); i++) {
  103398:	c7 45 f8 01 00 00 00 	movl   $0x1,-0x8(%ebp)
  10339f:	81 7d f8 55 01 00 00 	cmpl   $0x155,-0x8(%ebp)
  1033a6:	0f 83 30 00 00 00    	jae    1033dc <allocate_unused_nodes+0x8c>
  1033ac:	8d 05 30 84 10 00    	lea    0x108430,%eax
        append_to_list(&first_unused, &(new_nodes[i]));
  1033b2:	8b 4d f8             	mov    -0x8(%ebp),%ecx
  1033b5:	8b 55 fc             	mov    -0x4(%ebp),%edx
  1033b8:	69 c9 0c 00 00 00    	imul   $0xc,%ecx,%ecx
  1033be:	01 ca                	add    %ecx,%edx
  1033c0:	89 04 24             	mov    %eax,(%esp)
  1033c3:	89 54 24 04          	mov    %edx,0x4(%esp)
  1033c7:	e8 84 fb ff ff       	call   102f50 <append_to_list>

static void allocate_unused_nodes() {
    struct memory_node* new_nodes = vmm_alloc_cont(1);
    memset(new_nodes, 0, PAGESIZE);

    for (uint32_t i = 1; i < (PAGESIZE / sizeof(struct memory_node)); i++) {
  1033cc:	8b 45 f8             	mov    -0x8(%ebp),%eax
  1033cf:	05 01 00 00 00       	add    $0x1,%eax
  1033d4:	89 45 f8             	mov    %eax,-0x8(%ebp)
  1033d7:	e9 c3 ff ff ff       	jmp    10339f <allocate_unused_nodes+0x4f>
        append_to_list(&first_unused, &(new_nodes[i]));
    }
}
  1033dc:	83 c4 28             	add    $0x28,%esp
  1033df:	5d                   	pop    %ebp
  1033e0:	c3                   	ret    
  1033e1:	66 90                	xchg   %ax,%ax
  1033e3:	66 90                	xchg   %ax,%ax
  1033e5:	66 90                	xchg   %ax,%ax
  1033e7:	66 90                	xchg   %ax,%ax
  1033e9:	66 90                	xchg   %ax,%ax
  1033eb:	66 90                	xchg   %ax,%ax
  1033ed:	66 90                	xchg   %ax,%ax
  1033ef:	90                   	nop

001033f0 <memset>:
#include "vmm.h"
#include "string.h"

void* memset(void* buf, int c, size_t n) {
  1033f0:	55                   	push   %ebp
  1033f1:	89 e5                	mov    %esp,%ebp
  1033f3:	83 ec 10             	sub    $0x10,%esp
  1033f6:	8b 45 10             	mov    0x10(%ebp),%eax
  1033f9:	8b 4d 0c             	mov    0xc(%ebp),%ecx
  1033fc:	8b 55 08             	mov    0x8(%ebp),%edx
  1033ff:	89 55 fc             	mov    %edx,-0x4(%ebp)
  103402:	89 4d f8             	mov    %ecx,-0x8(%ebp)
  103405:	89 45 f4             	mov    %eax,-0xc(%ebp)
    unsigned char* p = buf;
  103408:	8b 45 fc             	mov    -0x4(%ebp),%eax
  10340b:	89 45 f0             	mov    %eax,-0x10(%ebp)

    while (n--) {
  10340e:	8b 45 f4             	mov    -0xc(%ebp),%eax
  103411:	89 c1                	mov    %eax,%ecx
  103413:	81 c1 ff ff ff ff    	add    $0xffffffff,%ecx
  103419:	89 4d f4             	mov    %ecx,-0xc(%ebp)
  10341c:	3d 00 00 00 00       	cmp    $0x0,%eax
  103421:	0f 84 1a 00 00 00    	je     103441 <memset+0x51>
        *p++ = c;
  103427:	8b 45 f8             	mov    -0x8(%ebp),%eax
  10342a:	88 c1                	mov    %al,%cl
  10342c:	8b 45 f0             	mov    -0x10(%ebp),%eax
  10342f:	89 c2                	mov    %eax,%edx
  103431:	81 c2 01 00 00 00    	add    $0x1,%edx
  103437:	89 55 f0             	mov    %edx,-0x10(%ebp)
  10343a:	88 08                	mov    %cl,(%eax)
    }
  10343c:	e9 cd ff ff ff       	jmp    10340e <memset+0x1e>

    return buf;
  103441:	8b 45 fc             	mov    -0x4(%ebp),%eax
  103444:	83 c4 10             	add    $0x10,%esp
  103447:	5d                   	pop    %ebp
  103448:	c3                   	ret    
  103449:	0f 1f 80 00 00 00 00 	nopl   0x0(%eax)

00103450 <memcpy>:
}

void* memcpy(void* dest, const void* src, size_t n) {
  103450:	55                   	push   %ebp
  103451:	89 e5                	mov    %esp,%ebp
  103453:	83 ec 14             	sub    $0x14,%esp
  103456:	8b 45 10             	mov    0x10(%ebp),%eax
  103459:	8b 4d 0c             	mov    0xc(%ebp),%ecx
  10345c:	8b 55 08             	mov    0x8(%ebp),%edx
  10345f:	89 55 fc             	mov    %edx,-0x4(%ebp)
  103462:	89 4d f8             	mov    %ecx,-0x8(%ebp)
  103465:	89 45 f4             	mov    %eax,-0xc(%ebp)
    unsigned char* d = dest;
  103468:	8b 45 fc             	mov    -0x4(%ebp),%eax
  10346b:	89 45 f0             	mov    %eax,-0x10(%ebp)
    const unsigned char* s = src;
  10346e:	8b 45 f8             	mov    -0x8(%ebp),%eax
  103471:	89 45 ec             	mov    %eax,-0x14(%ebp)

    while (n--) {
  103474:	8b 45 f4             	mov    -0xc(%ebp),%eax
  103477:	89 c1                	mov    %eax,%ecx
  103479:	81 c1 ff ff ff ff    	add    $0xffffffff,%ecx
  10347f:	89 4d f4             	mov    %ecx,-0xc(%ebp)
  103482:	3d 00 00 00 00       	cmp    $0x0,%eax
  103487:	0f 84 25 00 00 00    	je     1034b2 <memcpy+0x62>
        *(d++) = *(s++);
  10348d:	8b 45 ec             	mov    -0x14(%ebp),%eax
  103490:	89 c1                	mov    %eax,%ecx
  103492:	81 c1 01 00 00 00    	add    $0x1,%ecx
  103498:	89 4d ec             	mov    %ecx,-0x14(%ebp)
  10349b:	8a 10                	mov    (%eax),%dl
  10349d:	8b 45 f0             	mov    -0x10(%ebp),%eax
  1034a0:	89 c1                	mov    %eax,%ecx
  1034a2:	81 c1 01 00 00 00    	add    $0x1,%ecx
  1034a8:	89 4d f0             	mov    %ecx,-0x10(%ebp)
  1034ab:	88 10                	mov    %dl,(%eax)
    }
  1034ad:	e9 c2 ff ff ff       	jmp    103474 <memcpy+0x24>

    return dest;
  1034b2:	8b 45 fc             	mov    -0x4(%ebp),%eax
  1034b5:	83 c4 14             	add    $0x14,%esp
  1034b8:	5d                   	pop    %ebp
  1034b9:	c3                   	ret    
  1034ba:	66 0f 1f 44 00 00    	nopw   0x0(%eax,%eax,1)

001034c0 <memcmp>:
}

int memcmp(const void* ptr1, const void* ptr2, size_t num) {
  1034c0:	55                   	push   %ebp
  1034c1:	89 e5                	mov    %esp,%ebp
  1034c3:	83 ec 1c             	sub    $0x1c,%esp
  1034c6:	8b 45 10             	mov    0x10(%ebp),%eax
  1034c9:	8b 4d 0c             	mov    0xc(%ebp),%ecx
  1034cc:	8b 55 08             	mov    0x8(%ebp),%edx
  1034cf:	89 55 f8             	mov    %edx,-0x8(%ebp)
  1034d2:	89 4d f4             	mov    %ecx,-0xc(%ebp)
  1034d5:	89 45 f0             	mov    %eax,-0x10(%ebp)
    if (ptr1 == 0)
  1034d8:	81 7d f8 00 00 00 00 	cmpl   $0x0,-0x8(%ebp)
  1034df:	0f 85 0c 00 00 00    	jne    1034f1 <memcmp+0x31>
        return -1;
  1034e5:	c7 45 fc ff ff ff ff 	movl   $0xffffffff,-0x4(%ebp)
  1034ec:	e9 a7 00 00 00       	jmp    103598 <memcmp+0xd8>
    if (ptr2 == 0)
  1034f1:	81 7d f4 00 00 00 00 	cmpl   $0x0,-0xc(%ebp)
  1034f8:	0f 85 0c 00 00 00    	jne    10350a <memcmp+0x4a>
        return 1;
  1034fe:	c7 45 fc 01 00 00 00 	movl   $0x1,-0x4(%ebp)
  103505:	e9 8e 00 00 00       	jmp    103598 <memcmp+0xd8>
    if (num == 0)
  10350a:	81 7d f0 00 00 00 00 	cmpl   $0x0,-0x10(%ebp)
  103511:	0f 85 0c 00 00 00    	jne    103523 <memcmp+0x63>
        return 0;
  103517:	c7 45 fc 00 00 00 00 	movl   $0x0,-0x4(%ebp)
  10351e:	e9 75 00 00 00       	jmp    103598 <memcmp+0xd8>

    const uint8_t* pa = ptr1;
  103523:	8b 45 f8             	mov    -0x8(%ebp),%eax
  103526:	89 45 ec             	mov    %eax,-0x14(%ebp)
    const uint8_t* pb = ptr2;
  103529:	8b 45 f4             	mov    -0xc(%ebp),%eax
  10352c:	89 45 e8             	mov    %eax,-0x18(%ebp)

    for (uint32_t i = 0; i < num; i++) {
  10352f:	c7 45 e4 00 00 00 00 	movl   $0x0,-0x1c(%ebp)
  103536:	8b 45 e4             	mov    -0x1c(%ebp),%eax
  103539:	3b 45 f0             	cmp    -0x10(%ebp),%eax
  10353c:	0f 83 4f 00 00 00    	jae    103591 <memcmp+0xd1>
        if (pa[i] != pb[i]) {
  103542:	8b 45 e4             	mov    -0x1c(%ebp),%eax
  103545:	8b 4d ec             	mov    -0x14(%ebp),%ecx
  103548:	0f b6 04 01          	movzbl (%ecx,%eax,1),%eax
  10354c:	8b 4d e4             	mov    -0x1c(%ebp),%ecx
  10354f:	8b 55 e8             	mov    -0x18(%ebp),%edx
  103552:	0f b6 0c 0a          	movzbl (%edx,%ecx,1),%ecx
  103556:	39 c8                	cmp    %ecx,%eax
  103558:	0f 84 1e 00 00 00    	je     10357c <memcmp+0xbc>
            return pa[i] - pb[i];
  10355e:	8b 45 e4             	mov    -0x1c(%ebp),%eax
  103561:	8b 4d ec             	mov    -0x14(%ebp),%ecx
  103564:	0f b6 04 01          	movzbl (%ecx,%eax,1),%eax
  103568:	8b 4d e4             	mov    -0x1c(%ebp),%ecx
  10356b:	8b 55 e8             	mov    -0x18(%ebp),%edx
  10356e:	0f b6 0c 0a          	movzbl (%edx,%ecx,1),%ecx
  103572:	29 c8                	sub    %ecx,%eax
  103574:	89 45 fc             	mov    %eax,-0x4(%ebp)
  103577:	e9 1c 00 00 00       	jmp    103598 <memcmp+0xd8>
        }
    }
  10357c:	e9 00 00 00 00       	jmp    103581 <memcmp+0xc1>
        return 0;

    const uint8_t* pa = ptr1;
    const uint8_t* pb = ptr2;

    for (uint32_t i = 0; i < num; i++) {
  103581:	8b 45 e4             	mov    -0x1c(%ebp),%eax
  103584:	05 01 00 00 00       	add    $0x1,%eax
  103589:	89 45 e4             	mov    %eax,-0x1c(%ebp)
  10358c:	e9 a5 ff ff ff       	jmp    103536 <memcmp+0x76>
        if (pa[i] != pb[i]) {
            return pa[i] - pb[i];
        }
    }
    return 0;
  103591:	c7 45 fc 00 00 00 00 	movl   $0x0,-0x4(%ebp)
}
  103598:	8b 45 fc             	mov    -0x4(%ebp),%eax
  10359b:	83 c4 1c             	add    $0x1c,%esp
  10359e:	5d                   	pop    %ebp
  10359f:	c3                   	ret    

001035a0 <strcmp>:

int strcmp(const char* str1, const char* str2) {
  1035a0:	55                   	push   %ebp
  1035a1:	89 e5                	mov    %esp,%ebp
  1035a3:	56                   	push   %esi
  1035a4:	83 ec 24             	sub    $0x24,%esp
  1035a7:	8b 45 0c             	mov    0xc(%ebp),%eax
  1035aa:	8b 4d 08             	mov    0x8(%ebp),%ecx
  1035ad:	89 4d f8             	mov    %ecx,-0x8(%ebp)
  1035b0:	89 45 f4             	mov    %eax,-0xc(%ebp)
    int l1 = strlen(str1);
  1035b3:	8b 45 f8             	mov    -0x8(%ebp),%eax
  1035b6:	89 e1                	mov    %esp,%ecx
  1035b8:	89 01                	mov    %eax,(%ecx)
  1035ba:	e8 61 00 00 00       	call   103620 <strlen>
  1035bf:	89 45 f0             	mov    %eax,-0x10(%ebp)
    int l2 = strlen(str2);
  1035c2:	8b 45 f4             	mov    -0xc(%ebp),%eax
  1035c5:	89 e1                	mov    %esp,%ecx
  1035c7:	89 01                	mov    %eax,(%ecx)
  1035c9:	e8 52 00 00 00       	call   103620 <strlen>
  1035ce:	89 45 ec             	mov    %eax,-0x14(%ebp)
    l1 = l1 < l2 ? l1 : l2;
  1035d1:	8b 45 f0             	mov    -0x10(%ebp),%eax
  1035d4:	3b 45 ec             	cmp    -0x14(%ebp),%eax
  1035d7:	0f 8d 0b 00 00 00    	jge    1035e8 <strcmp+0x48>
  1035dd:	8b 45 f0             	mov    -0x10(%ebp),%eax
  1035e0:	89 45 e8             	mov    %eax,-0x18(%ebp)
  1035e3:	e9 06 00 00 00       	jmp    1035ee <strcmp+0x4e>
  1035e8:	8b 45 ec             	mov    -0x14(%ebp),%eax
  1035eb:	89 45 e8             	mov    %eax,-0x18(%ebp)
  1035ee:	8b 45 e8             	mov    -0x18(%ebp),%eax
  1035f1:	89 45 f0             	mov    %eax,-0x10(%ebp)

    return memcmp(str1, str2, l1 * sizeof(char));
  1035f4:	8b 45 f8             	mov    -0x8(%ebp),%eax
  1035f7:	8b 4d f4             	mov    -0xc(%ebp),%ecx
  1035fa:	8b 55 f0             	mov    -0x10(%ebp),%edx
  1035fd:	c1 e2 00             	shl    $0x0,%edx
  103600:	89 e6                	mov    %esp,%esi
  103602:	89 56 08             	mov    %edx,0x8(%esi)
  103605:	89 4e 04             	mov    %ecx,0x4(%esi)
  103608:	89 06                	mov    %eax,(%esi)
  10360a:	e8 b1 fe ff ff       	call   1034c0 <memcmp>
  10360f:	83 c4 24             	add    $0x24,%esp
  103612:	5e                   	pop    %esi
  103613:	5d                   	pop    %ebp
  103614:	c3                   	ret    
  103615:	66 66 2e 0f 1f 84 00 	data32 nopw %cs:0x0(%eax,%eax,1)
  10361c:	00 00 00 00 

00103620 <strlen>:
}

unsigned int strlen(const char* str) {
  103620:	55                   	push   %ebp
  103621:	89 e5                	mov    %esp,%ebp
  103623:	83 ec 0c             	sub    $0xc,%esp
  103626:	8b 45 08             	mov    0x8(%ebp),%eax
  103629:	89 45 f8             	mov    %eax,-0x8(%ebp)
    if (str == 0)
  10362c:	81 7d f8 00 00 00 00 	cmpl   $0x0,-0x8(%ebp)
  103633:	0f 85 0c 00 00 00    	jne    103645 <strlen+0x25>
        return 0;
  103639:	c7 45 fc 00 00 00 00 	movl   $0x0,-0x4(%ebp)
  103640:	e9 37 00 00 00       	jmp    10367c <strlen+0x5c>
    int i;
    for (i = 0; str[i] != '\0'; i++)
  103645:	c7 45 f4 00 00 00 00 	movl   $0x0,-0xc(%ebp)
  10364c:	8b 45 f4             	mov    -0xc(%ebp),%eax
  10364f:	8b 4d f8             	mov    -0x8(%ebp),%ecx
  103652:	0f be 04 01          	movsbl (%ecx,%eax,1),%eax
  103656:	3d 00 00 00 00       	cmp    $0x0,%eax
  10365b:	0f 84 15 00 00 00    	je     103676 <strlen+0x56>
  103661:	e9 00 00 00 00       	jmp    103666 <strlen+0x46>
  103666:	8b 45 f4             	mov    -0xc(%ebp),%eax
  103669:	05 01 00 00 00       	add    $0x1,%eax
  10366e:	89 45 f4             	mov    %eax,-0xc(%ebp)
  103671:	e9 d6 ff ff ff       	jmp    10364c <strlen+0x2c>
        ;
    return i;
  103676:	8b 45 f4             	mov    -0xc(%ebp),%eax
  103679:	89 45 fc             	mov    %eax,-0x4(%ebp)
}
  10367c:	8b 45 fc             	mov    -0x4(%ebp),%eax
  10367f:	83 c4 0c             	add    $0xc,%esp
  103682:	5d                   	pop    %ebp
  103683:	c3                   	ret    
  103684:	66 66 66 2e 0f 1f 84 	data32 data32 nopw %cs:0x0(%eax,%eax,1)
  10368b:	00 00 00 00 00 

00103690 <strcpy>:

char* strcpy(char* dest, const char* src) {
  103690:	55                   	push   %ebp
  103691:	89 e5                	mov    %esp,%ebp
  103693:	56                   	push   %esi
  103694:	83 ec 24             	sub    $0x24,%esp
  103697:	8b 45 0c             	mov    0xc(%ebp),%eax
  10369a:	8b 4d 08             	mov    0x8(%ebp),%ecx
  10369d:	89 4d f8             	mov    %ecx,-0x8(%ebp)
  1036a0:	89 45 f4             	mov    %eax,-0xc(%ebp)
    memcpy(dest, src, strlen(src) * sizeof(char));
  1036a3:	8b 45 f8             	mov    -0x8(%ebp),%eax
  1036a6:	8b 4d f4             	mov    -0xc(%ebp),%ecx
  1036a9:	8b 55 f4             	mov    -0xc(%ebp),%edx
  1036ac:	89 e6                	mov    %esp,%esi
  1036ae:	89 16                	mov    %edx,(%esi)
  1036b0:	89 45 f0             	mov    %eax,-0x10(%ebp)
  1036b3:	89 4d ec             	mov    %ecx,-0x14(%ebp)
  1036b6:	e8 65 ff ff ff       	call   103620 <strlen>
  1036bb:	c1 e0 00             	shl    $0x0,%eax
  1036be:	8b 4d f0             	mov    -0x10(%ebp),%ecx
  1036c1:	89 0c 24             	mov    %ecx,(%esp)
  1036c4:	8b 55 ec             	mov    -0x14(%ebp),%edx
  1036c7:	89 54 24 04          	mov    %edx,0x4(%esp)
  1036cb:	89 44 24 08          	mov    %eax,0x8(%esp)
  1036cf:	e8 7c fd ff ff       	call   103450 <memcpy>
    return dest;
  1036d4:	8b 45 f8             	mov    -0x8(%ebp),%eax
  1036d7:	83 c4 24             	add    $0x24,%esp
  1036da:	5e                   	pop    %esi
  1036db:	5d                   	pop    %ebp
  1036dc:	c3                   	ret    
  1036dd:	0f 1f 00             	nopl   (%eax)

001036e0 <strtok>:
}

char* sp = NULL; /* the start position of the string */

char* strtok(char* str, const char* delimiters) {
  1036e0:	55                   	push   %ebp
  1036e1:	89 e5                	mov    %esp,%ebp
  1036e3:	83 ec 28             	sub    $0x28,%esp
  1036e6:	8b 45 0c             	mov    0xc(%ebp),%eax
  1036e9:	8b 4d 08             	mov    0x8(%ebp),%ecx
  1036ec:	89 4d f8             	mov    %ecx,-0x8(%ebp)
  1036ef:	89 45 f4             	mov    %eax,-0xc(%ebp)
    int i = 0;
  1036f2:	c7 45 f0 00 00 00 00 	movl   $0x0,-0x10(%ebp)
    int len = strlen(delimiters);
  1036f9:	8b 45 f4             	mov    -0xc(%ebp),%eax
  1036fc:	89 e1                	mov    %esp,%ecx
  1036fe:	89 01                	mov    %eax,(%ecx)
  103700:	e8 1b ff ff ff       	call   103620 <strlen>
  103705:	89 45 ec             	mov    %eax,-0x14(%ebp)

    /* check in the delimiters */
    if (len == 0)
  103708:	81 7d ec 00 00 00 00 	cmpl   $0x0,-0x14(%ebp)
  10370f:	0f 85 0c 00 00 00    	jne    103721 <strtok+0x41>
        return 0;
  103715:	c7 45 fc 00 00 00 00 	movl   $0x0,-0x4(%ebp)
  10371c:	e9 80 01 00 00       	jmp    1038a1 <strtok+0x1c1>

    /* if the original string has nothing left */
    if (!str && !sp)
  103721:	81 7d f8 00 00 00 00 	cmpl   $0x0,-0x8(%ebp)
  103728:	0f 85 1c 00 00 00    	jne    10374a <strtok+0x6a>
  10372e:	81 3d 3c 84 10 00 00 	cmpl   $0x0,0x10843c
  103735:	00 00 00 
  103738:	0f 85 0c 00 00 00    	jne    10374a <strtok+0x6a>
        return 0;
  10373e:	c7 45 fc 00 00 00 00 	movl   $0x0,-0x4(%ebp)
  103745:	e9 57 01 00 00       	jmp    1038a1 <strtok+0x1c1>

    /* initialize the sp during the first call */
    if (str && !sp)
  10374a:	81 7d f8 00 00 00 00 	cmpl   $0x0,-0x8(%ebp)
  103751:	0f 84 18 00 00 00    	je     10376f <strtok+0x8f>
  103757:	81 3d 3c 84 10 00 00 	cmpl   $0x0,0x10843c
  10375e:	00 00 00 
  103761:	0f 85 08 00 00 00    	jne    10376f <strtok+0x8f>
        sp = str;
  103767:	8b 45 f8             	mov    -0x8(%ebp),%eax
  10376a:	a3 3c 84 10 00       	mov    %eax,0x10843c

    /* find the start of the substring, skip delimiters */
    char* p_start = sp;
  10376f:	a1 3c 84 10 00       	mov    0x10843c,%eax
  103774:	89 45 e8             	mov    %eax,-0x18(%ebp)
    while (1) {
        for (i = 0; i < len; i++) {
  103777:	c7 45 f0 00 00 00 00 	movl   $0x0,-0x10(%ebp)
  10377e:	8b 45 f0             	mov    -0x10(%ebp),%eax
  103781:	3b 45 ec             	cmp    -0x14(%ebp),%eax
  103784:	0f 8d 3d 00 00 00    	jge    1037c7 <strtok+0xe7>
            if (*p_start == delimiters[i]) {
  10378a:	8b 45 e8             	mov    -0x18(%ebp),%eax
  10378d:	0f be 00             	movsbl (%eax),%eax
  103790:	8b 4d f0             	mov    -0x10(%ebp),%ecx
  103793:	8b 55 f4             	mov    -0xc(%ebp),%edx
  103796:	0f be 0c 0a          	movsbl (%edx,%ecx,1),%ecx
  10379a:	39 c8                	cmp    %ecx,%eax
  10379c:	0f 85 10 00 00 00    	jne    1037b2 <strtok+0xd2>
                p_start++;
  1037a2:	8b 45 e8             	mov    -0x18(%ebp),%eax
  1037a5:	05 01 00 00 00       	add    $0x1,%eax
  1037aa:	89 45 e8             	mov    %eax,-0x18(%ebp)
                break;
  1037ad:	e9 15 00 00 00       	jmp    1037c7 <strtok+0xe7>
            }
        }
  1037b2:	e9 00 00 00 00       	jmp    1037b7 <strtok+0xd7>
        sp = str;

    /* find the start of the substring, skip delimiters */
    char* p_start = sp;
    while (1) {
        for (i = 0; i < len; i++) {
  1037b7:	8b 45 f0             	mov    -0x10(%ebp),%eax
  1037ba:	05 01 00 00 00       	add    $0x1,%eax
  1037bf:	89 45 f0             	mov    %eax,-0x10(%ebp)
  1037c2:	e9 b7 ff ff ff       	jmp    10377e <strtok+0x9e>
                p_start++;
                break;
            }
        }

        if (i == len) {
  1037c7:	8b 45 f0             	mov    -0x10(%ebp),%eax
  1037ca:	3b 45 ec             	cmp    -0x14(%ebp),%eax
  1037cd:	0f 85 0d 00 00 00    	jne    1037e0 <strtok+0x100>
            sp = p_start;
  1037d3:	8b 45 e8             	mov    -0x18(%ebp),%eax
  1037d6:	a3 3c 84 10 00       	mov    %eax,0x10843c
            break;
  1037db:	e9 05 00 00 00       	jmp    1037e5 <strtok+0x105>
        }
    }
  1037e0:	e9 92 ff ff ff       	jmp    103777 <strtok+0x97>

    /* return NULL if nothing left */
    if (*sp == '\0') {
  1037e5:	a1 3c 84 10 00       	mov    0x10843c,%eax
  1037ea:	0f be 00             	movsbl (%eax),%eax
  1037ed:	3d 00 00 00 00       	cmp    $0x0,%eax
  1037f2:	0f 85 17 00 00 00    	jne    10380f <strtok+0x12f>
        sp = NULL;
  1037f8:	c7 05 3c 84 10 00 00 	movl   $0x0,0x10843c
  1037ff:	00 00 00 
        return sp;
  103802:	a1 3c 84 10 00       	mov    0x10843c,%eax
  103807:	89 45 fc             	mov    %eax,-0x4(%ebp)
  10380a:	e9 92 00 00 00       	jmp    1038a1 <strtok+0x1c1>
    }

    /* find the end of the substring, and replace the delimiter with null*/
    while (*sp != '\0') {
  10380f:	e9 00 00 00 00       	jmp    103814 <strtok+0x134>
  103814:	a1 3c 84 10 00       	mov    0x10843c,%eax
  103819:	0f be 00             	movsbl (%eax),%eax
  10381c:	3d 00 00 00 00       	cmp    $0x0,%eax
  103821:	0f 84 74 00 00 00    	je     10389b <strtok+0x1bb>
        for (i = 0; i < len; i++) {
  103827:	c7 45 f0 00 00 00 00 	movl   $0x0,-0x10(%ebp)
  10382e:	8b 45 f0             	mov    -0x10(%ebp),%eax
  103831:	3b 45 ec             	cmp    -0x14(%ebp),%eax
  103834:	0f 8d 3c 00 00 00    	jge    103876 <strtok+0x196>
            if (*sp == delimiters[i]) {
  10383a:	a1 3c 84 10 00       	mov    0x10843c,%eax
  10383f:	0f be 00             	movsbl (%eax),%eax
  103842:	8b 4d f0             	mov    -0x10(%ebp),%ecx
  103845:	8b 55 f4             	mov    -0xc(%ebp),%edx
  103848:	0f be 0c 0a          	movsbl (%edx,%ecx,1),%ecx
  10384c:	39 c8                	cmp    %ecx,%eax
  10384e:	0f 85 0d 00 00 00    	jne    103861 <strtok+0x181>
                *sp = '\0';
  103854:	a1 3c 84 10 00       	mov    0x10843c,%eax
  103859:	c6 00 00             	movb   $0x0,(%eax)
                break;
  10385c:	e9 15 00 00 00       	jmp    103876 <strtok+0x196>
            }
        }
  103861:	e9 00 00 00 00       	jmp    103866 <strtok+0x186>
        return sp;
    }

    /* find the end of the substring, and replace the delimiter with null*/
    while (*sp != '\0') {
        for (i = 0; i < len; i++) {
  103866:	8b 45 f0             	mov    -0x10(%ebp),%eax
  103869:	05 01 00 00 00       	add    $0x1,%eax
  10386e:	89 45 f0             	mov    %eax,-0x10(%ebp)
  103871:	e9 b8 ff ff ff       	jmp    10382e <strtok+0x14e>
                *sp = '\0';
                break;
            }
        }

        sp++;
  103876:	a1 3c 84 10 00       	mov    0x10843c,%eax
  10387b:	05 01 00 00 00       	add    $0x1,%eax
  103880:	a3 3c 84 10 00       	mov    %eax,0x10843c
        if (i < len)
  103885:	8b 45 f0             	mov    -0x10(%ebp),%eax
  103888:	3b 45 ec             	cmp    -0x14(%ebp),%eax
  10388b:	0f 8d 05 00 00 00    	jge    103896 <strtok+0x1b6>
            break;
  103891:	e9 05 00 00 00       	jmp    10389b <strtok+0x1bb>
    }
  103896:	e9 79 ff ff ff       	jmp    103814 <strtok+0x134>

    return p_start;
  10389b:	8b 45 e8             	mov    -0x18(%ebp),%eax
  10389e:	89 45 fc             	mov    %eax,-0x4(%ebp)
}
  1038a1:	8b 45 fc             	mov    -0x4(%ebp),%eax
  1038a4:	83 c4 28             	add    $0x28,%esp
  1038a7:	5d                   	pop    %ebp
  1038a8:	c3                   	ret    
  1038a9:	66 90                	xchg   %ax,%ax
  1038ab:	66 90                	xchg   %ax,%ax
  1038ad:	66 90                	xchg   %ax,%ax
  1038af:	90                   	nop

001038b0 <vfs_create_dir>:
    }

    return child;
}

uint32_t vfs_create_dir(char* path) {
  1038b0:	55                   	push   %ebp
  1038b1:	89 e5                	mov    %esp,%ebp
  1038b3:	83 ec 08             	sub    $0x8,%esp
  1038b6:	8b 45 08             	mov    0x8(%ebp),%eax
  1038b9:	89 45 fc             	mov    %eax,-0x4(%ebp)
    return vfs_create_path(path);
  1038bc:	8b 45 fc             	mov    -0x4(%ebp),%eax
  1038bf:	89 04 24             	mov    %eax,(%esp)
  1038c2:	e8 09 00 00 00       	call   1038d0 <vfs_create_path>
  1038c7:	83 c4 08             	add    $0x8,%esp
  1038ca:	5d                   	pop    %ebp
  1038cb:	c3                   	ret    
  1038cc:	0f 1f 40 00          	nopl   0x0(%eax)

001038d0 <vfs_create_path>:
    }

    return 1;
}

static int vfs_create_path(char* path) {
  1038d0:	55                   	push   %ebp
  1038d1:	89 e5                	mov    %esp,%ebp
  1038d3:	57                   	push   %edi
  1038d4:	56                   	push   %esi
  1038d5:	83 ec 40             	sub    $0x40,%esp
  1038d8:	8b 45 08             	mov    0x8(%ebp),%eax
  1038db:	8d 0d 70 63 10 00    	lea    0x106370,%ecx
  1038e1:	89 45 f4             	mov    %eax,-0xc(%ebp)
    char* sub;
    struct res_node* parent = root;
  1038e4:	a1 40 84 10 00       	mov    0x108440,%eax
  1038e9:	89 45 ec             	mov    %eax,-0x14(%ebp)
    struct res_node* child = 0;
  1038ec:	c7 45 e8 00 00 00 00 	movl   $0x0,-0x18(%ebp)

    int created = 0;
  1038f3:	c7 45 e4 00 00 00 00 	movl   $0x0,-0x1c(%ebp)

    sub = strtok(path, "/");
  1038fa:	8b 45 f4             	mov    -0xc(%ebp),%eax
  1038fd:	89 04 24             	mov    %eax,(%esp)
  103900:	89 4c 24 04          	mov    %ecx,0x4(%esp)
  103904:	e8 d7 fd ff ff       	call   1036e0 <strtok>
  103909:	89 45 f0             	mov    %eax,-0x10(%ebp)
    while (sub != NULL)
  10390c:	81 7d f0 00 00 00 00 	cmpl   $0x0,-0x10(%ebp)
  103913:	0f 84 3f 01 00 00    	je     103a58 <vfs_create_path+0x188>
  103919:	8d 05 72 63 10 00    	lea    0x106372,%eax
    {
        kprintf("vfscp at %s child=%x, parent=%x, root=%x\n", sub, child, parent, root);
  10391f:	8b 4d f0             	mov    -0x10(%ebp),%ecx
  103922:	8b 55 e8             	mov    -0x18(%ebp),%edx
  103925:	8b 75 ec             	mov    -0x14(%ebp),%esi
  103928:	8b 3d 40 84 10 00    	mov    0x108440,%edi
  10392e:	89 04 24             	mov    %eax,(%esp)
  103931:	89 4c 24 04          	mov    %ecx,0x4(%esp)
  103935:	89 54 24 08          	mov    %edx,0x8(%esp)
  103939:	89 74 24 0c          	mov    %esi,0xc(%esp)
  10393d:	89 7c 24 10          	mov    %edi,0x10(%esp)
  103941:	e8 0a cc ff ff       	call   100550 <kprintf>
        child = vfs_find_node(parent, sub);
  103946:	8b 4d ec             	mov    -0x14(%ebp),%ecx
  103949:	8b 55 f0             	mov    -0x10(%ebp),%edx
  10394c:	89 0c 24             	mov    %ecx,(%esp)
  10394f:	89 54 24 04          	mov    %edx,0x4(%esp)
  103953:	89 45 e0             	mov    %eax,-0x20(%ebp)
  103956:	e8 c5 05 00 00       	call   103f20 <vfs_find_node>
  10395b:	89 45 e8             	mov    %eax,-0x18(%ebp)
        if(child == 0) {
  10395e:	81 7d e8 00 00 00 00 	cmpl   $0x0,-0x18(%ebp)
  103965:	0f 85 c1 00 00 00    	jne    103a2c <vfs_create_path+0x15c>
  10396b:	b8 10 01 00 00       	mov    $0x110,%eax
            child = malloc(sizeof(struct res_node));
  103970:	c7 04 24 10 01 00 00 	movl   $0x110,(%esp)
  103977:	89 45 dc             	mov    %eax,-0x24(%ebp)
  10397a:	e8 21 f4 ff ff       	call   102da0 <malloc>
  10397f:	89 45 e8             	mov    %eax,-0x18(%ebp)

            strcpy(child->name, sub);
  103982:	8b 45 e8             	mov    -0x18(%ebp),%eax
  103985:	8b 4d f0             	mov    -0x10(%ebp),%ecx
  103988:	89 e2                	mov    %esp,%edx
  10398a:	89 4a 04             	mov    %ecx,0x4(%edx)
  10398d:	89 02                	mov    %eax,(%edx)
  10398f:	e8 fc fc ff ff       	call   103690 <strcpy>
            child->res_type = RES_SUBDIR;
  103994:	8b 4d e8             	mov    -0x18(%ebp),%ecx
  103997:	c7 81 00 01 00 00 00 	movl   $0x0,0x100(%ecx)
  10399e:	00 00 00 
            child->res_ptr = 0;
  1039a1:	8b 4d e8             	mov    -0x18(%ebp),%ecx
  1039a4:	c7 81 04 01 00 00 00 	movl   $0x0,0x104(%ecx)
  1039ab:	00 00 00 

            created++;
  1039ae:	8b 4d e4             	mov    -0x1c(%ebp),%ecx
  1039b1:	81 c1 01 00 00 00    	add    $0x1,%ecx
  1039b7:	89 4d e4             	mov    %ecx,-0x1c(%ebp)

            if(vfs_insert_node(parent, child)) {
  1039ba:	8b 4d ec             	mov    -0x14(%ebp),%ecx
  1039bd:	8b 55 e8             	mov    -0x18(%ebp),%edx
  1039c0:	89 0c 24             	mov    %ecx,(%esp)
  1039c3:	89 54 24 04          	mov    %edx,0x4(%esp)
  1039c7:	89 45 d8             	mov    %eax,-0x28(%ebp)
  1039ca:	e8 e1 05 00 00       	call   103fb0 <vfs_insert_node>
  1039cf:	3d 00 00 00 00       	cmp    $0x0,%eax
  1039d4:	0f 84 26 00 00 00    	je     103a00 <vfs_create_path+0x130>
  1039da:	b8 38 00 00 00       	mov    $0x38,%eax
                show_cod(malloc(sizeof(struct cpu_state)), "Tried to insert VFS node in non RES_SUBDIR parent");
  1039df:	c7 04 24 38 00 00 00 	movl   $0x38,(%esp)
  1039e6:	89 45 d4             	mov    %eax,-0x2c(%ebp)
  1039e9:	e8 b2 f3 ff ff       	call   102da0 <malloc>
  1039ee:	8d 0d 9c 63 10 00    	lea    0x10639c,%ecx
  1039f4:	89 04 24             	mov    %eax,(%esp)
  1039f7:	89 4c 24 04          	mov    %ecx,0x4(%esp)
  1039fb:	e8 70 c9 ff ff       	call   100370 <show_cod>
  103a00:	8d 05 ce 63 10 00    	lea    0x1063ce,%eax
            }

            kprintf("vfscp created %s at %x with next %x \n", sub, child, child->next);
  103a06:	8b 4d f0             	mov    -0x10(%ebp),%ecx
  103a09:	8b 55 e8             	mov    -0x18(%ebp),%edx
  103a0c:	8b 75 e8             	mov    -0x18(%ebp),%esi
  103a0f:	8b b6 08 01 00 00    	mov    0x108(%esi),%esi
  103a15:	89 04 24             	mov    %eax,(%esp)
  103a18:	89 4c 24 04          	mov    %ecx,0x4(%esp)
  103a1c:	89 54 24 08          	mov    %edx,0x8(%esp)
  103a20:	89 74 24 0c          	mov    %esi,0xc(%esp)
  103a24:	e8 27 cb ff ff       	call   100550 <kprintf>
  103a29:	89 45 d0             	mov    %eax,-0x30(%ebp)
  103a2c:	b8 00 00 00 00       	mov    $0x0,%eax
  103a31:	8d 0d 70 63 10 00    	lea    0x106370,%ecx
        }

        parent = child;
  103a37:	8b 55 e8             	mov    -0x18(%ebp),%edx
  103a3a:	89 55 ec             	mov    %edx,-0x14(%ebp)

        sub = strtok(0, "/");
  103a3d:	c7 04 24 00 00 00 00 	movl   $0x0,(%esp)
  103a44:	89 4c 24 04          	mov    %ecx,0x4(%esp)
  103a48:	89 45 cc             	mov    %eax,-0x34(%ebp)
  103a4b:	e8 90 fc ff ff       	call   1036e0 <strtok>
  103a50:	89 45 f0             	mov    %eax,-0x10(%ebp)
    }
  103a53:	e9 b4 fe ff ff       	jmp    10390c <vfs_create_path+0x3c>

    return created;
  103a58:	8b 45 e4             	mov    -0x1c(%ebp),%eax
  103a5b:	83 c4 40             	add    $0x40,%esp
  103a5e:	5e                   	pop    %esi
  103a5f:	5f                   	pop    %edi
  103a60:	5d                   	pop    %ebp
  103a61:	c3                   	ret    
  103a62:	66 66 66 66 66 2e 0f 	data32 data32 data32 data32 nopw %cs:0x0(%eax,%eax,1)
  103a69:	1f 84 00 00 00 00 00 

00103a70 <vfs_create_kfile>:

uint32_t vfs_create_dir(char* path) {
    return vfs_create_path(path);
}

uint32_t vfs_create_kfile(char* path, struct kfs_driver* driver, uint32_t* params) {
  103a70:	55                   	push   %ebp
  103a71:	89 e5                	mov    %esp,%ebp
  103a73:	83 ec 28             	sub    $0x28,%esp
  103a76:	8b 45 10             	mov    0x10(%ebp),%eax
  103a79:	8b 4d 0c             	mov    0xc(%ebp),%ecx
  103a7c:	8b 55 08             	mov    0x8(%ebp),%edx
  103a7f:	89 55 fc             	mov    %edx,-0x4(%ebp)
  103a82:	89 4d f8             	mov    %ecx,-0x8(%ebp)
  103a85:	89 45 f4             	mov    %eax,-0xc(%ebp)
    char* pathc = malloc(strlen(path) + 1);
  103a88:	8b 45 fc             	mov    -0x4(%ebp),%eax
  103a8b:	89 e1                	mov    %esp,%ecx
  103a8d:	89 01                	mov    %eax,(%ecx)
  103a8f:	e8 8c fb ff ff       	call   103620 <strlen>
  103a94:	05 01 00 00 00       	add    $0x1,%eax
  103a99:	89 04 24             	mov    %eax,(%esp)
  103a9c:	e8 ff f2 ff ff       	call   102da0 <malloc>
  103aa1:	89 45 f0             	mov    %eax,-0x10(%ebp)
    strcpy(pathc, path);
  103aa4:	8b 45 f0             	mov    -0x10(%ebp),%eax
  103aa7:	8b 4d fc             	mov    -0x4(%ebp),%ecx
  103aaa:	89 e2                	mov    %esp,%edx
  103aac:	89 4a 04             	mov    %ecx,0x4(%edx)
  103aaf:	89 02                	mov    %eax,(%edx)
  103ab1:	e8 da fb ff ff       	call   103690 <strcpy>

    uint32_t ret = vfs_create_path(pathc);
  103ab6:	8b 4d f0             	mov    -0x10(%ebp),%ecx
  103ab9:	89 0c 24             	mov    %ecx,(%esp)
  103abc:	89 45 e8             	mov    %eax,-0x18(%ebp)
  103abf:	e8 0c fe ff ff       	call   1038d0 <vfs_create_path>
  103ac4:	89 45 ec             	mov    %eax,-0x14(%ebp)

    static struct res_node* node;
    node = vfs_get_node(path);
  103ac7:	8b 45 fc             	mov    -0x4(%ebp),%eax
  103aca:	89 04 24             	mov    %eax,(%esp)
  103acd:	e8 4e 00 00 00       	call   103b20 <vfs_get_node>
  103ad2:	a3 4c 84 10 00       	mov    %eax,0x10844c

    node->res_type = RES_KERNDRV;
  103ad7:	a1 4c 84 10 00       	mov    0x10844c,%eax
  103adc:	c7 80 00 01 00 00 01 	movl   $0x1,0x100(%eax)
  103ae3:	00 00 00 
    node->res_ptr = driver->create(params);
  103ae6:	8b 45 f8             	mov    -0x8(%ebp),%eax
  103ae9:	8b 40 10             	mov    0x10(%eax),%eax
  103aec:	8b 4d f4             	mov    -0xc(%ebp),%ecx
  103aef:	89 0c 24             	mov    %ecx,(%esp)
  103af2:	ff d0                	call   *%eax
  103af4:	8b 0d 4c 84 10 00    	mov    0x10844c,%ecx
  103afa:	89 81 04 01 00 00    	mov    %eax,0x104(%ecx)
    ((struct res_kfile*) node->res_ptr)->driver = driver;
  103b00:	8b 45 f8             	mov    -0x8(%ebp),%eax
  103b03:	8b 0d 4c 84 10 00    	mov    0x10844c,%ecx
  103b09:	8b 89 04 01 00 00    	mov    0x104(%ecx),%ecx
  103b0f:	89 41 04             	mov    %eax,0x4(%ecx)

    return ret;
  103b12:	8b 45 ec             	mov    -0x14(%ebp),%eax
  103b15:	83 c4 28             	add    $0x28,%esp
  103b18:	5d                   	pop    %ebp
  103b19:	c3                   	ret    
  103b1a:	66 0f 1f 44 00 00    	nopw   0x0(%eax,%eax,1)

00103b20 <vfs_get_node>:
    }

    return created;
}

static struct res_node* vfs_get_node(char* path) {
  103b20:	55                   	push   %ebp
  103b21:	89 e5                	mov    %esp,%ebp
  103b23:	83 ec 28             	sub    $0x28,%esp
  103b26:	8b 45 08             	mov    0x8(%ebp),%eax
  103b29:	8d 0d 70 63 10 00    	lea    0x106370,%ecx
  103b2f:	89 45 fc             	mov    %eax,-0x4(%ebp)
    char* sub;
    struct res_node* parent = root;
  103b32:	a1 40 84 10 00       	mov    0x108440,%eax
  103b37:	89 45 f4             	mov    %eax,-0xc(%ebp)
    struct res_node* child = 0;
  103b3a:	c7 45 f0 00 00 00 00 	movl   $0x0,-0x10(%ebp)

    sub = strtok(path, "/");
  103b41:	8b 45 fc             	mov    -0x4(%ebp),%eax
  103b44:	89 04 24             	mov    %eax,(%esp)
  103b47:	89 4c 24 04          	mov    %ecx,0x4(%esp)
  103b4b:	e8 90 fb ff ff       	call   1036e0 <strtok>
  103b50:	89 45 f8             	mov    %eax,-0x8(%ebp)
    while (sub != NULL)
  103b53:	81 7d f8 00 00 00 00 	cmpl   $0x0,-0x8(%ebp)
  103b5a:	0f 84 41 00 00 00    	je     103ba1 <vfs_get_node+0x81>
    {
        child = vfs_find_node(parent, sub);
  103b60:	8b 45 f4             	mov    -0xc(%ebp),%eax
  103b63:	8b 4d f8             	mov    -0x8(%ebp),%ecx
  103b66:	89 04 24             	mov    %eax,(%esp)
  103b69:	89 4c 24 04          	mov    %ecx,0x4(%esp)
  103b6d:	e8 ae 03 00 00       	call   103f20 <vfs_find_node>
  103b72:	b9 00 00 00 00       	mov    $0x0,%ecx
  103b77:	8d 15 70 63 10 00    	lea    0x106370,%edx
  103b7d:	89 45 f0             	mov    %eax,-0x10(%ebp)
        parent = child;
  103b80:	8b 45 f0             	mov    -0x10(%ebp),%eax
  103b83:	89 45 f4             	mov    %eax,-0xc(%ebp)
        sub = strtok(0, "/");
  103b86:	c7 04 24 00 00 00 00 	movl   $0x0,(%esp)
  103b8d:	89 54 24 04          	mov    %edx,0x4(%esp)
  103b91:	89 4d ec             	mov    %ecx,-0x14(%ebp)
  103b94:	e8 47 fb ff ff       	call   1036e0 <strtok>
  103b99:	89 45 f8             	mov    %eax,-0x8(%ebp)
    }
  103b9c:	e9 b2 ff ff ff       	jmp    103b53 <vfs_get_node+0x33>

    return child;
  103ba1:	8b 45 f0             	mov    -0x10(%ebp),%eax
  103ba4:	83 c4 28             	add    $0x28,%esp
  103ba7:	5d                   	pop    %ebp
  103ba8:	c3                   	ret    
  103ba9:	0f 1f 80 00 00 00 00 	nopl   0x0(%eax)

00103bb0 <vfs_open>:
    ((struct res_kfile*) node->res_ptr)->driver = driver;

    return ret;
}

struct res_handle* vfs_open(char* path, uint32_t filemode) {
  103bb0:	55                   	push   %ebp
  103bb1:	89 e5                	mov    %esp,%ebp
  103bb3:	83 ec 28             	sub    $0x28,%esp
  103bb6:	8b 45 0c             	mov    0xc(%ebp),%eax
  103bb9:	8b 4d 08             	mov    0x8(%ebp),%ecx
  103bbc:	89 4d f8             	mov    %ecx,-0x8(%ebp)
  103bbf:	89 45 f4             	mov    %eax,-0xc(%ebp)
    struct res_node* node = vfs_get_node(path);
  103bc2:	8b 45 f8             	mov    -0x8(%ebp),%eax
  103bc5:	89 04 24             	mov    %eax,(%esp)
  103bc8:	e8 53 ff ff ff       	call   103b20 <vfs_get_node>
  103bcd:	89 45 f0             	mov    %eax,-0x10(%ebp)

    if(node->res_type == RES_KERNDRV) {
  103bd0:	8b 45 f0             	mov    -0x10(%ebp),%eax
  103bd3:	81 b8 00 01 00 00 01 	cmpl   $0x1,0x100(%eax)
  103bda:	00 00 00 
  103bdd:	0f 85 2c 00 00 00    	jne    103c0f <vfs_open+0x5f>
        struct res_kfile* kf = (struct res_kfile*)node->res_ptr;
  103be3:	8b 45 f0             	mov    -0x10(%ebp),%eax
  103be6:	8b 80 04 01 00 00    	mov    0x104(%eax),%eax
  103bec:	89 45 ec             	mov    %eax,-0x14(%ebp)

        return kf->driver->open(kf, filemode);
  103bef:	8b 45 ec             	mov    -0x14(%ebp),%eax
  103bf2:	8b 40 04             	mov    0x4(%eax),%eax
  103bf5:	8b 40 08             	mov    0x8(%eax),%eax
  103bf8:	8b 4d ec             	mov    -0x14(%ebp),%ecx
  103bfb:	8b 55 f4             	mov    -0xc(%ebp),%edx
  103bfe:	89 0c 24             	mov    %ecx,(%esp)
  103c01:	89 54 24 04          	mov    %edx,0x4(%esp)
  103c05:	ff d0                	call   *%eax
  103c07:	89 45 fc             	mov    %eax,-0x4(%ebp)
  103c0a:	e9 07 00 00 00       	jmp    103c16 <vfs_open+0x66>
    }

    return 0;
  103c0f:	c7 45 fc 00 00 00 00 	movl   $0x0,-0x4(%ebp)
}
  103c16:	8b 45 fc             	mov    -0x4(%ebp),%eax
  103c19:	83 c4 28             	add    $0x28,%esp
  103c1c:	5d                   	pop    %ebp
  103c1d:	c3                   	ret    
  103c1e:	66 90                	xchg   %ax,%ax

00103c20 <vfs_close>:

uint32_t vfs_close(struct res_handle* handle) {
  103c20:	55                   	push   %ebp
  103c21:	89 e5                	mov    %esp,%ebp
  103c23:	83 ec 18             	sub    $0x18,%esp
  103c26:	8b 45 08             	mov    0x8(%ebp),%eax
  103c29:	89 45 f8             	mov    %eax,-0x8(%ebp)
    if(handle->res_type == RES_KERNDRV) {
  103c2c:	8b 45 f8             	mov    -0x8(%ebp),%eax
  103c2f:	81 38 01 00 00 00    	cmpl   $0x1,(%eax)
  103c35:	0f 85 22 00 00 00    	jne    103c5d <vfs_close+0x3d>
       struct res_kfile* kf = (struct res_kfile*)handle->res_ptr;
  103c3b:	8b 45 f8             	mov    -0x8(%ebp),%eax
  103c3e:	8b 40 04             	mov    0x4(%eax),%eax
  103c41:	89 45 f4             	mov    %eax,-0xc(%ebp)

       return kf->driver->close(handle);
  103c44:	8b 45 f4             	mov    -0xc(%ebp),%eax
  103c47:	8b 40 04             	mov    0x4(%eax),%eax
  103c4a:	8b 40 0c             	mov    0xc(%eax),%eax
  103c4d:	8b 4d f8             	mov    -0x8(%ebp),%ecx
  103c50:	89 0c 24             	mov    %ecx,(%esp)
  103c53:	ff d0                	call   *%eax
  103c55:	89 45 fc             	mov    %eax,-0x4(%ebp)
  103c58:	e9 07 00 00 00       	jmp    103c64 <vfs_close+0x44>
    }

    return 0;
  103c5d:	c7 45 fc 00 00 00 00 	movl   $0x0,-0x4(%ebp)
}
  103c64:	8b 45 fc             	mov    -0x4(%ebp),%eax
  103c67:	83 c4 18             	add    $0x18,%esp
  103c6a:	5d                   	pop    %ebp
  103c6b:	c3                   	ret    
  103c6c:	0f 1f 40 00          	nopl   0x0(%eax)

00103c70 <vfs_read>:

uint32_t vfs_read(struct res_handle* handle, void* dest, uint32_t size, uint32_t count) {
  103c70:	55                   	push   %ebp
  103c71:	89 e5                	mov    %esp,%ebp
  103c73:	57                   	push   %edi
  103c74:	56                   	push   %esi
  103c75:	83 ec 30             	sub    $0x30,%esp
  103c78:	8b 45 14             	mov    0x14(%ebp),%eax
  103c7b:	8b 4d 10             	mov    0x10(%ebp),%ecx
  103c7e:	8b 55 0c             	mov    0xc(%ebp),%edx
  103c81:	8b 75 08             	mov    0x8(%ebp),%esi
  103c84:	89 75 f0             	mov    %esi,-0x10(%ebp)
  103c87:	89 55 ec             	mov    %edx,-0x14(%ebp)
  103c8a:	89 4d e8             	mov    %ecx,-0x18(%ebp)
  103c8d:	89 45 e4             	mov    %eax,-0x1c(%ebp)
    if(handle->res_type == RES_KERNDRV) {
  103c90:	8b 45 f0             	mov    -0x10(%ebp),%eax
  103c93:	81 38 01 00 00 00    	cmpl   $0x1,(%eax)
  103c99:	0f 85 51 00 00 00    	jne    103cf0 <vfs_read+0x80>
       struct res_kfile* kf = (struct res_kfile*)handle->res_ptr;
  103c9f:	8b 45 f0             	mov    -0x10(%ebp),%eax
  103ca2:	8b 40 04             	mov    0x4(%eax),%eax
  103ca5:	89 45 e0             	mov    %eax,-0x20(%ebp)

       uint32_t read = kf->driver->rread(handle, dest, handle->position, size * count); //TODO it's not that easy... it shouldn't be size * count but instead count times size (for loop)
  103ca8:	8b 45 e0             	mov    -0x20(%ebp),%eax
  103cab:	8b 40 04             	mov    0x4(%eax),%eax
  103cae:	8b 00                	mov    (%eax),%eax
  103cb0:	8b 4d f0             	mov    -0x10(%ebp),%ecx
  103cb3:	8b 55 ec             	mov    -0x14(%ebp),%edx
  103cb6:	8b 75 f0             	mov    -0x10(%ebp),%esi
  103cb9:	8b 76 08             	mov    0x8(%esi),%esi
  103cbc:	8b 7d e8             	mov    -0x18(%ebp),%edi
  103cbf:	0f af 7d e4          	imul   -0x1c(%ebp),%edi
  103cc3:	89 0c 24             	mov    %ecx,(%esp)
  103cc6:	89 54 24 04          	mov    %edx,0x4(%esp)
  103cca:	89 74 24 08          	mov    %esi,0x8(%esp)
  103cce:	89 7c 24 0c          	mov    %edi,0xc(%esp)
  103cd2:	ff d0                	call   *%eax
  103cd4:	89 45 dc             	mov    %eax,-0x24(%ebp)
       handle->position += read;
  103cd7:	8b 45 dc             	mov    -0x24(%ebp),%eax
  103cda:	8b 4d f0             	mov    -0x10(%ebp),%ecx
  103cdd:	8b 51 08             	mov    0x8(%ecx),%edx
  103ce0:	01 c2                	add    %eax,%edx
  103ce2:	89 51 08             	mov    %edx,0x8(%ecx)

       return read;
  103ce5:	8b 45 dc             	mov    -0x24(%ebp),%eax
  103ce8:	89 45 f4             	mov    %eax,-0xc(%ebp)
  103ceb:	e9 07 00 00 00       	jmp    103cf7 <vfs_read+0x87>
    }

    return 0;
  103cf0:	c7 45 f4 00 00 00 00 	movl   $0x0,-0xc(%ebp)
}
  103cf7:	8b 45 f4             	mov    -0xc(%ebp),%eax
  103cfa:	83 c4 30             	add    $0x30,%esp
  103cfd:	5e                   	pop    %esi
  103cfe:	5f                   	pop    %edi
  103cff:	5d                   	pop    %ebp
  103d00:	c3                   	ret    
  103d01:	66 66 66 66 66 66 2e 	data32 data32 data32 data32 data32 nopw %cs:0x0(%eax,%eax,1)
  103d08:	0f 1f 84 00 00 00 00 
  103d0f:	00 

00103d10 <vfs_write>:

uint32_t vfs_write(struct res_handle* handle, void* src,  uint32_t size, uint32_t count) {
  103d10:	55                   	push   %ebp
  103d11:	89 e5                	mov    %esp,%ebp
  103d13:	57                   	push   %edi
  103d14:	56                   	push   %esi
  103d15:	83 ec 30             	sub    $0x30,%esp
  103d18:	8b 45 14             	mov    0x14(%ebp),%eax
  103d1b:	8b 4d 10             	mov    0x10(%ebp),%ecx
  103d1e:	8b 55 0c             	mov    0xc(%ebp),%edx
  103d21:	8b 75 08             	mov    0x8(%ebp),%esi
  103d24:	89 75 f0             	mov    %esi,-0x10(%ebp)
  103d27:	89 55 ec             	mov    %edx,-0x14(%ebp)
  103d2a:	89 4d e8             	mov    %ecx,-0x18(%ebp)
  103d2d:	89 45 e4             	mov    %eax,-0x1c(%ebp)
    if(handle->res_type == RES_KERNDRV) {
  103d30:	8b 45 f0             	mov    -0x10(%ebp),%eax
  103d33:	81 38 01 00 00 00    	cmpl   $0x1,(%eax)
  103d39:	0f 85 52 00 00 00    	jne    103d91 <vfs_write+0x81>
       struct res_kfile* kf = (struct res_kfile*)handle->res_ptr;
  103d3f:	8b 45 f0             	mov    -0x10(%ebp),%eax
  103d42:	8b 40 04             	mov    0x4(%eax),%eax
  103d45:	89 45 e0             	mov    %eax,-0x20(%ebp)

       uint32_t written = kf->driver->rwrite(handle, src, handle->position, size * count); //TODO it's not that easy... it shouldn't be size * count but instead count times size (for loop)
  103d48:	8b 45 e0             	mov    -0x20(%ebp),%eax
  103d4b:	8b 40 04             	mov    0x4(%eax),%eax
  103d4e:	8b 40 04             	mov    0x4(%eax),%eax
  103d51:	8b 4d f0             	mov    -0x10(%ebp),%ecx
  103d54:	8b 55 ec             	mov    -0x14(%ebp),%edx
  103d57:	8b 75 f0             	mov    -0x10(%ebp),%esi
  103d5a:	8b 76 08             	mov    0x8(%esi),%esi
  103d5d:	8b 7d e8             	mov    -0x18(%ebp),%edi
  103d60:	0f af 7d e4          	imul   -0x1c(%ebp),%edi
  103d64:	89 0c 24             	mov    %ecx,(%esp)
  103d67:	89 54 24 04          	mov    %edx,0x4(%esp)
  103d6b:	89 74 24 08          	mov    %esi,0x8(%esp)
  103d6f:	89 7c 24 0c          	mov    %edi,0xc(%esp)
  103d73:	ff d0                	call   *%eax
  103d75:	89 45 dc             	mov    %eax,-0x24(%ebp)
       handle->position += written;
  103d78:	8b 45 dc             	mov    -0x24(%ebp),%eax
  103d7b:	8b 4d f0             	mov    -0x10(%ebp),%ecx
  103d7e:	8b 51 08             	mov    0x8(%ecx),%edx
  103d81:	01 c2                	add    %eax,%edx
  103d83:	89 51 08             	mov    %edx,0x8(%ecx)

       return written;
  103d86:	8b 45 dc             	mov    -0x24(%ebp),%eax
  103d89:	89 45 f4             	mov    %eax,-0xc(%ebp)
  103d8c:	e9 07 00 00 00       	jmp    103d98 <vfs_write+0x88>
    }

    return 0;
  103d91:	c7 45 f4 00 00 00 00 	movl   $0x0,-0xc(%ebp)
}
  103d98:	8b 45 f4             	mov    -0xc(%ebp),%eax
  103d9b:	83 c4 30             	add    $0x30,%esp
  103d9e:	5e                   	pop    %esi
  103d9f:	5f                   	pop    %edi
  103da0:	5d                   	pop    %ebp
  103da1:	c3                   	ret    
  103da2:	66 66 66 66 66 2e 0f 	data32 data32 data32 data32 nopw %cs:0x0(%eax,%eax,1)
  103da9:	1f 84 00 00 00 00 00 

00103db0 <vfs_init_root>:

void vfs_init_root() {
  103db0:	55                   	push   %ebp
  103db1:	89 e5                	mov    %esp,%ebp
    if(root == 0) {
  103db3:	83 ec 18             	sub    $0x18,%esp
  103db6:	81 3d 40 84 10 00 00 	cmpl   $0x0,0x108440
  103dbd:	00 00 00 
  103dc0:	0f 85 6f 00 00 00    	jne    103e35 <vfs_init_root+0x85>
  103dc6:	b8 10 01 00 00       	mov    $0x110,%eax
        root = malloc(sizeof(struct res_node));
  103dcb:	c7 04 24 10 01 00 00 	movl   $0x110,(%esp)
  103dd2:	89 45 fc             	mov    %eax,-0x4(%ebp)
  103dd5:	e8 c6 ef ff ff       	call   102da0 <malloc>
  103dda:	a3 40 84 10 00       	mov    %eax,0x108440
        root->next = 0;
  103ddf:	a1 40 84 10 00       	mov    0x108440,%eax
  103de4:	c7 80 08 01 00 00 00 	movl   $0x0,0x108(%eax)
  103deb:	00 00 00 
        root->parent = 0;
  103dee:	a1 40 84 10 00       	mov    0x108440,%eax
  103df3:	c7 80 0c 01 00 00 00 	movl   $0x0,0x10c(%eax)
  103dfa:	00 00 00 
        strcpy(root->name, "$");
  103dfd:	a1 40 84 10 00       	mov    0x108440,%eax
  103e02:	89 e1                	mov    %esp,%ecx
  103e04:	89 01                	mov    %eax,(%ecx)
  103e06:	c7 41 04 55 63 10 00 	movl   $0x106355,0x4(%ecx)
  103e0d:	e8 7e f8 ff ff       	call   103690 <strcpy>
        root->res_ptr = 0;
  103e12:	8b 0d 40 84 10 00    	mov    0x108440,%ecx
  103e18:	c7 81 04 01 00 00 00 	movl   $0x0,0x104(%ecx)
  103e1f:	00 00 00 
        root->res_type = RES_SUBDIR;
  103e22:	8b 0d 40 84 10 00    	mov    0x108440,%ecx
  103e28:	c7 81 00 01 00 00 00 	movl   $0x0,0x100(%ecx)
  103e2f:	00 00 00 
  103e32:	89 45 f8             	mov    %eax,-0x8(%ebp)
    }
}
  103e35:	83 c4 18             	add    $0x18,%esp
  103e38:	5d                   	pop    %ebp
  103e39:	c3                   	ret    
  103e3a:	66 0f 1f 44 00 00    	nopw   0x0(%eax,%eax,1)

00103e40 <vfs_debug_ls>:

void vfs_debug_ls(char* path) {
  103e40:	55                   	push   %ebp
  103e41:	89 e5                	mov    %esp,%ebp
  103e43:	56                   	push   %esi
  103e44:	83 ec 24             	sub    $0x24,%esp
  103e47:	8b 45 08             	mov    0x8(%ebp),%eax
  103e4a:	89 45 f8             	mov    %eax,-0x8(%ebp)
    static struct res_node* node;
    node = vfs_get_node(path);
  103e4d:	8b 45 f8             	mov    -0x8(%ebp),%eax
  103e50:	89 04 24             	mov    %eax,(%esp)
  103e53:	e8 c8 fc ff ff       	call   103b20 <vfs_get_node>
  103e58:	a3 50 84 10 00       	mov    %eax,0x108450
    node = node->res_ptr;
  103e5d:	a1 50 84 10 00       	mov    0x108450,%eax
  103e62:	8b 80 04 01 00 00    	mov    0x104(%eax),%eax
  103e68:	a3 50 84 10 00       	mov    %eax,0x108450

    while(node != 0) {
  103e6d:	81 3d 50 84 10 00 00 	cmpl   $0x0,0x108450
  103e74:	00 00 00 
  103e77:	0f 84 90 00 00 00    	je     103f0d <vfs_debug_ls+0xcd>
  103e7d:	8d 05 57 63 10 00    	lea    0x106357,%eax
        char* type = "N/A";
  103e83:	89 45 f4             	mov    %eax,-0xc(%ebp)

        if(node->res_type == RES_SUBDIR) {
  103e86:	a1 50 84 10 00       	mov    0x108450,%eax
  103e8b:	81 b8 00 01 00 00 00 	cmpl   $0x0,0x100(%eax)
  103e92:	00 00 00 
  103e95:	0f 85 09 00 00 00    	jne    103ea4 <vfs_debug_ls+0x64>
  103e9b:	8d 05 5b 63 10 00    	lea    0x10635b,%eax
            type = "DIR";
  103ea1:	89 45 f4             	mov    %eax,-0xc(%ebp)
        }

        if(node->res_type == RES_KERNDRV) {
  103ea4:	a1 50 84 10 00       	mov    0x108450,%eax
  103ea9:	81 b8 00 01 00 00 01 	cmpl   $0x1,0x100(%eax)
  103eb0:	00 00 00 
  103eb3:	0f 85 14 00 00 00    	jne    103ecd <vfs_debug_ls+0x8d>
            type = ((struct res_kfile*)node->res_ptr)->driver->drvname;
  103eb9:	a1 50 84 10 00       	mov    0x108450,%eax
  103ebe:	8b 80 04 01 00 00    	mov    0x104(%eax),%eax
  103ec4:	8b 40 04             	mov    0x4(%eax),%eax
  103ec7:	8b 40 14             	mov    0x14(%eax),%eax
  103eca:	89 45 f4             	mov    %eax,-0xc(%ebp)
  103ecd:	8d 05 5f 63 10 00    	lea    0x10635f,%eax
        }

        kprintf("LS$ %s: %s [%s]\n", path, node->name, type);
  103ed3:	8b 4d f8             	mov    -0x8(%ebp),%ecx
  103ed6:	8b 15 50 84 10 00    	mov    0x108450,%edx
  103edc:	8b 75 f4             	mov    -0xc(%ebp),%esi
  103edf:	89 04 24             	mov    %eax,(%esp)
  103ee2:	89 4c 24 04          	mov    %ecx,0x4(%esp)
  103ee6:	89 54 24 08          	mov    %edx,0x8(%esp)
  103eea:	89 74 24 0c          	mov    %esi,0xc(%esp)
  103eee:	e8 5d c6 ff ff       	call   100550 <kprintf>

        node = node->next;
  103ef3:	8b 0d 50 84 10 00    	mov    0x108450,%ecx
  103ef9:	8b 89 08 01 00 00    	mov    0x108(%ecx),%ecx
  103eff:	89 0d 50 84 10 00    	mov    %ecx,0x108450
    }
  103f05:	89 45 f0             	mov    %eax,-0x10(%ebp)
  103f08:	e9 60 ff ff ff       	jmp    103e6d <vfs_debug_ls+0x2d>
}
  103f0d:	83 c4 24             	add    $0x24,%esp
  103f10:	5e                   	pop    %esi
  103f11:	5d                   	pop    %ebp
  103f12:	c3                   	ret    
  103f13:	66 66 66 66 2e 0f 1f 	data32 data32 data32 nopw %cs:0x0(%eax,%eax,1)
  103f1a:	84 00 00 00 00 00 

00103f20 <vfs_find_node>:

struct res_node* root = 0;
struct res_node* current = 0;
struct res_node* temp = 0;

static struct res_node* vfs_find_node(struct res_node* parent, char* name) {
  103f20:	55                   	push   %ebp
  103f21:	89 e5                	mov    %esp,%ebp
  103f23:	83 ec 18             	sub    $0x18,%esp
  103f26:	8b 45 0c             	mov    0xc(%ebp),%eax
  103f29:	8b 4d 08             	mov    0x8(%ebp),%ecx
  103f2c:	89 4d f8             	mov    %ecx,-0x8(%ebp)
  103f2f:	89 45 f4             	mov    %eax,-0xc(%ebp)
    if(parent->res_type == RES_SUBDIR) {
  103f32:	8b 45 f8             	mov    -0x8(%ebp),%eax
  103f35:	81 b8 00 01 00 00 00 	cmpl   $0x0,0x100(%eax)
  103f3c:	00 00 00 
  103f3f:	0f 85 57 00 00 00    	jne    103f9c <vfs_find_node+0x7c>
        struct res_node* ptr = parent->res_ptr;
  103f45:	8b 45 f8             	mov    -0x8(%ebp),%eax
  103f48:	8b 80 04 01 00 00    	mov    0x104(%eax),%eax
  103f4e:	89 45 f0             	mov    %eax,-0x10(%ebp)

        while(ptr != 0) {
  103f51:	81 7d f0 00 00 00 00 	cmpl   $0x0,-0x10(%ebp)
  103f58:	0f 84 39 00 00 00    	je     103f97 <vfs_find_node+0x77>
            if(strcmp(name, ptr->name) == 0) {
  103f5e:	8b 45 f4             	mov    -0xc(%ebp),%eax
  103f61:	8b 4d f0             	mov    -0x10(%ebp),%ecx
  103f64:	89 e2                	mov    %esp,%edx
  103f66:	89 4a 04             	mov    %ecx,0x4(%edx)
  103f69:	89 02                	mov    %eax,(%edx)
  103f6b:	e8 30 f6 ff ff       	call   1035a0 <strcmp>
  103f70:	3d 00 00 00 00       	cmp    $0x0,%eax
  103f75:	0f 85 0b 00 00 00    	jne    103f86 <vfs_find_node+0x66>
                return ptr;
  103f7b:	8b 45 f0             	mov    -0x10(%ebp),%eax
  103f7e:	89 45 fc             	mov    %eax,-0x4(%ebp)
  103f81:	e9 1d 00 00 00       	jmp    103fa3 <vfs_find_node+0x83>
            }

            ptr = ptr->next;
  103f86:	8b 45 f0             	mov    -0x10(%ebp),%eax
  103f89:	8b 80 08 01 00 00    	mov    0x108(%eax),%eax
  103f8f:	89 45 f0             	mov    %eax,-0x10(%ebp)
        }
  103f92:	e9 ba ff ff ff       	jmp    103f51 <vfs_find_node+0x31>
    }
  103f97:	e9 00 00 00 00       	jmp    103f9c <vfs_find_node+0x7c>

    return 0;
  103f9c:	c7 45 fc 00 00 00 00 	movl   $0x0,-0x4(%ebp)
}
  103fa3:	8b 45 fc             	mov    -0x4(%ebp),%eax
  103fa6:	83 c4 18             	add    $0x18,%esp
  103fa9:	5d                   	pop    %ebp
  103faa:	c3                   	ret    
  103fab:	0f 1f 44 00 00       	nopl   0x0(%eax,%eax,1)

00103fb0 <vfs_insert_node>:

static int vfs_insert_node(struct res_node* parent, struct res_node* child) {
  103fb0:	55                   	push   %ebp
  103fb1:	89 e5                	mov    %esp,%ebp
  103fb3:	83 ec 0c             	sub    $0xc,%esp
  103fb6:	8b 45 0c             	mov    0xc(%ebp),%eax
  103fb9:	8b 4d 08             	mov    0x8(%ebp),%ecx
  103fbc:	89 4d f8             	mov    %ecx,-0x8(%ebp)
  103fbf:	89 45 f4             	mov    %eax,-0xc(%ebp)
    if(parent->res_ptr == 0) {
  103fc2:	8b 45 f8             	mov    -0x8(%ebp),%eax
  103fc5:	81 b8 04 01 00 00 00 	cmpl   $0x0,0x104(%eax)
  103fcc:	00 00 00 
  103fcf:	0f 85 0d 00 00 00    	jne    103fe2 <vfs_insert_node+0x32>
        parent->res_type = RES_SUBDIR;
  103fd5:	8b 45 f8             	mov    -0x8(%ebp),%eax
  103fd8:	c7 80 00 01 00 00 00 	movl   $0x0,0x100(%eax)
  103fdf:	00 00 00 
    }

    if(parent->res_type == RES_SUBDIR) {
  103fe2:	8b 45 f8             	mov    -0x8(%ebp),%eax
  103fe5:	81 b8 00 01 00 00 00 	cmpl   $0x0,0x100(%eax)
  103fec:	00 00 00 
  103fef:	0f 85 36 00 00 00    	jne    10402b <vfs_insert_node+0x7b>
        child->next = parent->res_ptr;
  103ff5:	8b 45 f8             	mov    -0x8(%ebp),%eax
  103ff8:	8b 80 04 01 00 00    	mov    0x104(%eax),%eax
  103ffe:	8b 4d f4             	mov    -0xc(%ebp),%ecx
  104001:	89 81 08 01 00 00    	mov    %eax,0x108(%ecx)
        child->parent = parent;
  104007:	8b 45 f8             	mov    -0x8(%ebp),%eax
  10400a:	8b 4d f4             	mov    -0xc(%ebp),%ecx
  10400d:	89 81 0c 01 00 00    	mov    %eax,0x10c(%ecx)
        parent->res_ptr = child;
  104013:	8b 45 f4             	mov    -0xc(%ebp),%eax
  104016:	8b 4d f8             	mov    -0x8(%ebp),%ecx
  104019:	89 81 04 01 00 00    	mov    %eax,0x104(%ecx)

        return 0;
  10401f:	c7 45 fc 00 00 00 00 	movl   $0x0,-0x4(%ebp)
  104026:	e9 07 00 00 00       	jmp    104032 <vfs_insert_node+0x82>
    }

    return 1;
  10402b:	c7 45 fc 01 00 00 00 	movl   $0x1,-0x4(%ebp)
}
  104032:	8b 45 fc             	mov    -0x4(%ebp),%eax
  104035:	83 c4 0c             	add    $0xc,%esp
  104038:	5d                   	pop    %ebp
  104039:	c3                   	ret    
  10403a:	66 90                	xchg   %ax,%ax
  10403c:	66 90                	xchg   %ax,%ax
  10403e:	66 90                	xchg   %ax,%ax

00104040 <vmm_get_current_pagedir>:
	}

	vmm_unmap(pagedir_ptr);
}

uint32_t vmm_get_current_pagedir(void) {
  104040:	55                   	push   %ebp
  104041:	89 e5                	mov    %esp,%ebp
	return active_pagedir;
  104043:	a1 54 84 10 00       	mov    0x108454,%eax
  104048:	5d                   	pop    %ebp
  104049:	c3                   	ret    
  10404a:	66 0f 1f 44 00 00    	nopw   0x0(%eax,%eax,1)

00104050 <vmm_fork_current>:
}

uint32_t vmm_fork_current(void) {
  104050:	55                   	push   %ebp
  104051:	89 e5                	mov    %esp,%ebp
  104053:	56                   	push   %esi
  104054:	83 ec 34             	sub    $0x34,%esp
  104057:	8d 45 f8             	lea    -0x8(%ebp),%eax
	uint32_t phys_pagedir, paddr, i;
	uint32_t* pdptr = vmm_create_vpdraw(&phys_pagedir);
  10405a:	89 04 24             	mov    %eax,(%esp)
  10405d:	e8 ce 00 00 00       	call   104130 <vmm_create_vpdraw>
  104062:	89 45 ec             	mov    %eax,-0x14(%ebp)

	for (i = PROGRAM_BOTTOM; i < 0xFFFFF000; i += 0x1000) {
  104065:	c7 45 f0 00 10 40 20 	movl   $0x20401000,-0x10(%ebp)
  10406c:	81 7d f0 00 f0 ff ff 	cmpl   $0xfffff000,-0x10(%ebp)
  104073:	0f 83 98 00 00 00    	jae    104111 <vmm_fork_current+0xc1>
		if (active_pagetables[i >> 12] & PT_PRESENT) {
  104079:	8b 45 f0             	mov    -0x10(%ebp),%eax
  10407c:	c1 e8 0c             	shr    $0xc,%eax
  10407f:	8b 0d a4 51 10 00    	mov    0x1051a4,%ecx
  104085:	8b 04 81             	mov    (%ecx,%eax,4),%eax
  104088:	25 01 00 00 00       	and    $0x1,%eax
  10408d:	3d 00 00 00 00       	cmp    $0x0,%eax
  104092:	0f 84 64 00 00 00    	je     1040fc <vmm_fork_current+0xac>
  104098:	8d 45 f4             	lea    -0xc(%ebp),%eax
			void* newp = vmm_alloc_user(&paddr);
  10409b:	89 04 24             	mov    %eax,(%esp)
  10409e:	e8 4d 03 00 00       	call   1043f0 <vmm_alloc_user>
  1040a3:	b9 00 00 00 00       	mov    $0x0,%ecx
  1040a8:	ba 00 10 00 00       	mov    $0x1000,%edx
  1040ad:	89 45 e8             	mov    %eax,-0x18(%ebp)

			memcpy(newp, (void*) i, 0x1000);
  1040b0:	8b 45 e8             	mov    -0x18(%ebp),%eax
  1040b3:	8b 75 f0             	mov    -0x10(%ebp),%esi
  1040b6:	89 04 24             	mov    %eax,(%esp)
  1040b9:	89 74 24 04          	mov    %esi,0x4(%esp)
  1040bd:	c7 44 24 08 00 10 00 	movl   $0x1000,0x8(%esp)
  1040c4:	00 
  1040c5:	89 55 e4             	mov    %edx,-0x1c(%ebp)
  1040c8:	89 4d e0             	mov    %ecx,-0x20(%ebp)
  1040cb:	e8 80 f3 ff ff       	call   103450 <memcpy>
			map_address_context(pdptr, i, paddr, 0);
  1040d0:	8b 45 ec             	mov    -0x14(%ebp),%eax
  1040d3:	8b 4d f0             	mov    -0x10(%ebp),%ecx
  1040d6:	8b 55 f4             	mov    -0xc(%ebp),%edx
  1040d9:	89 04 24             	mov    %eax,(%esp)
  1040dc:	89 4c 24 04          	mov    %ecx,0x4(%esp)
  1040e0:	89 54 24 08          	mov    %edx,0x8(%esp)
  1040e4:	c7 44 24 0c 00 00 00 	movl   $0x0,0xc(%esp)
  1040eb:	00 
  1040ec:	e8 4f 03 00 00       	call   104440 <map_address_context>

			vmm_unmap(newp);
  1040f1:	8b 45 e8             	mov    -0x18(%ebp),%eax
  1040f4:	89 04 24             	mov    %eax,(%esp)
  1040f7:	e8 d4 03 00 00       	call   1044d0 <vmm_unmap>
		}

	}
  1040fc:	e9 00 00 00 00       	jmp    104101 <vmm_fork_current+0xb1>

uint32_t vmm_fork_current(void) {
	uint32_t phys_pagedir, paddr, i;
	uint32_t* pdptr = vmm_create_vpdraw(&phys_pagedir);

	for (i = PROGRAM_BOTTOM; i < 0xFFFFF000; i += 0x1000) {
  104101:	8b 45 f0             	mov    -0x10(%ebp),%eax
  104104:	05 00 10 00 00       	add    $0x1000,%eax
  104109:	89 45 f0             	mov    %eax,-0x10(%ebp)
  10410c:	e9 5b ff ff ff       	jmp    10406c <vmm_fork_current+0x1c>
			vmm_unmap(newp);
		}

	}

	vmm_free_pdptr(pdptr);
  104111:	8b 45 ec             	mov    -0x14(%ebp),%eax
  104114:	89 04 24             	mov    %eax,(%esp)
  104117:	e8 24 04 00 00       	call   104540 <vmm_free_pdptr>

	return phys_pagedir;
  10411c:	8b 45 f8             	mov    -0x8(%ebp),%eax
  10411f:	83 c4 34             	add    $0x34,%esp
  104122:	5e                   	pop    %esi
  104123:	5d                   	pop    %ebp
  104124:	c3                   	ret    
  104125:	66 66 2e 0f 1f 84 00 	data32 nopw %cs:0x0(%eax,%eax,1)
  10412c:	00 00 00 00 

00104130 <vmm_create_vpdraw>:
uint32_t* active_pagetables = (uint32_t*) (ACTIVE_PAGETBL_VADDR);
struct vmm_context* active_context = (void*) (ACTIVE_CONTEXT_VADDR);

uint32_t active_pagedir = 0;

static uint32_t* vmm_create_vpdraw(uint32_t* pagedir) {
  104130:	55                   	push   %ebp
  104131:	89 e5                	mov    %esp,%ebp
  104133:	53                   	push   %ebx
  104134:	57                   	push   %edi
  104135:	56                   	push   %esi
  104136:	83 ec 4c             	sub    $0x4c,%esp
  104139:	8b 45 08             	mov    0x8(%ebp),%eax
  10413c:	8d 4d ec             	lea    -0x14(%ebp),%ecx
  10413f:	89 45 f0             	mov    %eax,-0x10(%ebp)
	uint32_t phys_context = 0;
  104142:	c7 45 ec 00 00 00 00 	movl   $0x0,-0x14(%ebp)
	struct vmm_context* context = vmm_alloc(&phys_context);
  104149:	89 0c 24             	mov    %ecx,(%esp)
  10414c:	e8 6f 05 00 00       	call   1046c0 <vmm_alloc>
  104151:	8d 4d e4             	lea    -0x1c(%ebp),%ecx
  104154:	89 45 e8             	mov    %eax,-0x18(%ebp)

	uint32_t phys_pagedir = 0;
  104157:	c7 45 e4 00 00 00 00 	movl   $0x0,-0x1c(%ebp)
	context->pagedir = vmm_alloc(&phys_pagedir);
  10415e:	89 0c 24             	mov    %ecx,(%esp)
  104161:	e8 5a 05 00 00       	call   1046c0 <vmm_alloc>
  104166:	8b 4d e8             	mov    -0x18(%ebp),%ecx
  104169:	89 01                	mov    %eax,(%ecx)
	if (pagedir != 0)
  10416b:	81 7d f0 00 00 00 00 	cmpl   $0x0,-0x10(%ebp)
  104172:	0f 84 08 00 00 00    	je     104180 <vmm_create_vpdraw+0x50>
		*pagedir = phys_pagedir;
  104178:	8b 45 e4             	mov    -0x1c(%ebp),%eax
  10417b:	8b 4d f0             	mov    -0x10(%ebp),%ecx
  10417e:	89 01                	mov    %eax,(%ecx)
  104180:	b8 00 00 00 00       	mov    $0x0,%eax

	uint32_t* pagedir_ptr = vmm_alloc(0);
  104185:	c7 04 24 00 00 00 00 	movl   $0x0,(%esp)
  10418c:	89 45 c8             	mov    %eax,-0x38(%ebp)
  10418f:	e8 2c 05 00 00       	call   1046c0 <vmm_alloc>
  104194:	89 45 e0             	mov    %eax,-0x20(%ebp)
	uint32_t paddr, i, i2;

	for (i = 0; i < 1024; i++) {
  104197:	c7 45 d8 00 00 00 00 	movl   $0x0,-0x28(%ebp)
  10419e:	81 7d d8 00 04 00 00 	cmpl   $0x400,-0x28(%ebp)
  1041a5:	0f 83 25 01 00 00    	jae    1042d0 <vmm_create_vpdraw+0x1a0>
  1041ab:	8d 45 dc             	lea    -0x24(%ebp),%eax
		pagedir_ptr[i] = (uint32_t) vmm_alloc(&paddr);
  1041ae:	89 04 24             	mov    %eax,(%esp)
  1041b1:	e8 0a 05 00 00       	call   1046c0 <vmm_alloc>
  1041b6:	8b 4d d8             	mov    -0x28(%ebp),%ecx
  1041b9:	8b 55 e0             	mov    -0x20(%ebp),%edx
  1041bc:	89 04 8a             	mov    %eax,(%edx,%ecx,4)

		if (i < PMEM_TABLES) {
  1041bf:	81 7d d8 80 00 00 00 	cmpl   $0x80,-0x28(%ebp)
  1041c6:	0f 83 4d 00 00 00    	jae    104219 <vmm_create_vpdraw+0xe9>
			vmm_free((void*) (pagedir_ptr[i]));
  1041cc:	8b 45 d8             	mov    -0x28(%ebp),%eax
  1041cf:	8b 4d e0             	mov    -0x20(%ebp),%ecx
  1041d2:	8b 04 81             	mov    (%ecx,%eax,4),%eax
  1041d5:	89 04 24             	mov    %eax,(%esp)
  1041d8:	e8 33 05 00 00       	call   104710 <vmm_free>
  1041dd:	b8 00 00 00 00       	mov    $0x0,%eax
			map_address_active(pagedir_ptr[i], kernel_pagetables[i], 0); //Can reuse pagedir_ptr[i] cause of vmm_free
  1041e2:	8b 4d d8             	mov    -0x28(%ebp),%ecx
  1041e5:	8b 55 e0             	mov    -0x20(%ebp),%edx
  1041e8:	8b 0c 8a             	mov    (%edx,%ecx,4),%ecx
  1041eb:	8b 55 d8             	mov    -0x28(%ebp),%edx
  1041ee:	8b 14 95 84 c4 16 00 	mov    0x16c484(,%edx,4),%edx
  1041f5:	89 0c 24             	mov    %ecx,(%esp)
  1041f8:	89 54 24 04          	mov    %edx,0x4(%esp)
  1041fc:	c7 44 24 08 00 00 00 	movl   $0x0,0x8(%esp)
  104203:	00 
  104204:	89 45 c4             	mov    %eax,-0x3c(%ebp)
  104207:	e8 84 05 00 00       	call   104790 <map_address_active>
			paddr = kernel_pagetables[i];
  10420c:	8b 45 d8             	mov    -0x28(%ebp),%eax
  10420f:	8b 04 85 84 c4 16 00 	mov    0x16c484(,%eax,4),%eax
  104216:	89 45 dc             	mov    %eax,-0x24(%ebp)
		}

		context->pagedir[i] = paddr | PD_PRESENT | PD_WRITE | PD_PUBLIC;
  104219:	8b 45 dc             	mov    -0x24(%ebp),%eax
  10421c:	0d 01 00 00 00       	or     $0x1,%eax
  104221:	0d 02 00 00 00       	or     $0x2,%eax
  104226:	0d 04 00 00 00       	or     $0x4,%eax
  10422b:	8b 4d d8             	mov    -0x28(%ebp),%ecx
  10422e:	8b 55 e8             	mov    -0x18(%ebp),%edx
  104231:	8b 12                	mov    (%edx),%edx
  104233:	89 04 8a             	mov    %eax,(%edx,%ecx,4)

		if (i >= PMEM_TABLES) { //don't override kernel tables ;)
  104236:	81 7d d8 80 00 00 00 	cmpl   $0x80,-0x28(%ebp)
  10423d:	0f 82 78 00 00 00    	jb     1042bb <vmm_create_vpdraw+0x18b>
			for (i2 = 0; i2 < 1024; i2++) {
  104243:	c7 45 d4 00 00 00 00 	movl   $0x0,-0x2c(%ebp)
  10424a:	81 7d d4 00 04 00 00 	cmpl   $0x400,-0x2c(%ebp)
  104251:	0f 83 5f 00 00 00    	jae    1042b6 <vmm_create_vpdraw+0x186>
  104257:	b8 04 00 00 00       	mov    $0x4,%eax
  10425c:	b9 00 00 00 00       	mov    $0x0,%ecx
  104261:	ba 00 02 00 00       	mov    $0x200,%edx
				uint32_t vaddr = (i << 22) + (i2 << 12);
  104266:	8b 75 d8             	mov    -0x28(%ebp),%esi
  104269:	c1 e6 16             	shl    $0x16,%esi
  10426c:	8b 7d d4             	mov    -0x2c(%ebp),%edi
  10426f:	c1 e7 0c             	shl    $0xc,%edi
  104272:	01 fe                	add    %edi,%esi
  104274:	89 75 d0             	mov    %esi,-0x30(%ebp)

				((uint32_t*) (pagedir_ptr[i]))[i2] = (
  104277:	81 7d d0 00 00 80 00 	cmpl   $0x800000,-0x30(%ebp)
  10427e:	0f 97 c3             	seta   %bl
  104281:	84 db                	test   %bl,%bl
  104283:	0f 44 d1             	cmove  %ecx,%edx
  104286:	81 7d d0 00 10 40 20 	cmpl   $0x20401000,-0x30(%ebp)
  10428d:	0f 97 c3             	seta   %bl
  104290:	84 db                	test   %bl,%bl
  104292:	0f 44 c1             	cmove  %ecx,%eax
  104295:	09 c2                	or     %eax,%edx
  104297:	8b 45 d4             	mov    -0x2c(%ebp),%eax
  10429a:	8b 4d d8             	mov    -0x28(%ebp),%ecx
  10429d:	8b 75 e0             	mov    -0x20(%ebp),%esi
  1042a0:	8b 0c 8e             	mov    (%esi,%ecx,4),%ecx
  1042a3:	89 14 81             	mov    %edx,(%ecx,%eax,4)
		}

		context->pagedir[i] = paddr | PD_PRESENT | PD_WRITE | PD_PUBLIC;

		if (i >= PMEM_TABLES) { //don't override kernel tables ;)
			for (i2 = 0; i2 < 1024; i2++) {
  1042a6:	8b 45 d4             	mov    -0x2c(%ebp),%eax
  1042a9:	05 01 00 00 00       	add    $0x1,%eax
  1042ae:	89 45 d4             	mov    %eax,-0x2c(%ebp)
  1042b1:	e9 94 ff ff ff       	jmp    10424a <vmm_create_vpdraw+0x11a>

				((uint32_t*) (pagedir_ptr[i]))[i2] = (
						(vaddr > ALLOCATABLE_BOTTOM) ? PT_ALLOCATABLE : 0)
						| ((vaddr > PROGRAM_BOTTOM) ? PT_PUBLIC : 0);
			}
		}
  1042b6:	e9 00 00 00 00       	jmp    1042bb <vmm_create_vpdraw+0x18b>
	}
  1042bb:	e9 00 00 00 00       	jmp    1042c0 <vmm_create_vpdraw+0x190>
		*pagedir = phys_pagedir;

	uint32_t* pagedir_ptr = vmm_alloc(0);
	uint32_t paddr, i, i2;

	for (i = 0; i < 1024; i++) {
  1042c0:	8b 45 d8             	mov    -0x28(%ebp),%eax
  1042c3:	05 01 00 00 00       	add    $0x1,%eax
  1042c8:	89 45 d8             	mov    %eax,-0x28(%ebp)
  1042cb:	e9 ce fe ff ff       	jmp    10419e <vmm_create_vpdraw+0x6e>
						| ((vaddr > PROGRAM_BOTTOM) ? PT_PUBLIC : 0);
			}
		}
	}

	for (i = 0; i < 1024; i++) {
  1042d0:	c7 45 d8 00 00 00 00 	movl   $0x0,-0x28(%ebp)
  1042d7:	81 7d d8 00 04 00 00 	cmpl   $0x400,-0x28(%ebp)
  1042de:	0f 83 58 00 00 00    	jae    10433c <vmm_create_vpdraw+0x20c>
  1042e4:	b8 00 00 00 00       	mov    $0x0,%eax
		paddr = context->pagedir[i] & 0xFFFFF000;
  1042e9:	8b 4d d8             	mov    -0x28(%ebp),%ecx
  1042ec:	8b 55 e8             	mov    -0x18(%ebp),%edx
  1042ef:	8b 12                	mov    (%edx),%edx
  1042f1:	8b 0c 8a             	mov    (%edx,%ecx,4),%ecx
  1042f4:	81 e1 00 f0 ff ff    	and    $0xfffff000,%ecx
  1042fa:	89 4d dc             	mov    %ecx,-0x24(%ebp)
		map_address_context(pagedir_ptr,
  1042fd:	8b 4d e0             	mov    -0x20(%ebp),%ecx
  104300:	8b 15 a4 51 10 00    	mov    0x1051a4,%edx
  104306:	8b 75 d8             	mov    -0x28(%ebp),%esi
  104309:	c1 e6 0c             	shl    $0xc,%esi
  10430c:	01 f2                	add    %esi,%edx
  10430e:	8b 75 dc             	mov    -0x24(%ebp),%esi
  104311:	89 0c 24             	mov    %ecx,(%esp)
  104314:	89 54 24 04          	mov    %edx,0x4(%esp)
  104318:	89 74 24 08          	mov    %esi,0x8(%esp)
  10431c:	c7 44 24 0c 00 00 00 	movl   $0x0,0xc(%esp)
  104323:	00 
  104324:	89 45 c0             	mov    %eax,-0x40(%ebp)
  104327:	e8 14 01 00 00       	call   104440 <map_address_context>
						| ((vaddr > PROGRAM_BOTTOM) ? PT_PUBLIC : 0);
			}
		}
	}

	for (i = 0; i < 1024; i++) {
  10432c:	8b 45 d8             	mov    -0x28(%ebp),%eax
  10432f:	05 01 00 00 00       	add    $0x1,%eax
  104334:	89 45 d8             	mov    %eax,-0x28(%ebp)
  104337:	e9 9b ff ff ff       	jmp    1042d7 <vmm_create_vpdraw+0x1a7>
  10433c:	b8 00 00 00 00       	mov    $0x0,%eax
		paddr = context->pagedir[i] & 0xFFFFF000;
		map_address_context(pagedir_ptr,
				(uint32_t) active_pagetables + i * 0x1000, paddr, 0);
	}

	map_address_context(pagedir_ptr, (uint32_t) active_context, phys_context,
  104341:	8b 4d e0             	mov    -0x20(%ebp),%ecx
  104344:	8b 15 a8 51 10 00    	mov    0x1051a8,%edx
  10434a:	8b 75 ec             	mov    -0x14(%ebp),%esi
  10434d:	89 0c 24             	mov    %ecx,(%esp)
  104350:	89 54 24 04          	mov    %edx,0x4(%esp)
  104354:	89 74 24 08          	mov    %esi,0x8(%esp)
  104358:	c7 44 24 0c 00 00 00 	movl   $0x0,0xc(%esp)
  10435f:	00 
  104360:	89 45 bc             	mov    %eax,-0x44(%ebp)
  104363:	e8 d8 00 00 00       	call   104440 <map_address_context>
			0);

	for (i = 0x1000; i < (uint32_t) &kernel_end; i += 0x1000) {
  104368:	c7 45 d8 00 10 00 00 	movl   $0x1000,-0x28(%ebp)
  10436f:	8d 05 00 d0 16 00    	lea    0x16d000,%eax
  104375:	39 45 d8             	cmp    %eax,-0x28(%ebp)
  104378:	0f 83 39 00 00 00    	jae    1043b7 <vmm_create_vpdraw+0x287>
  10437e:	b8 00 00 00 00       	mov    $0x0,%eax
		map_address_context(pagedir_ptr, i, i, 0);
  104383:	8b 4d e0             	mov    -0x20(%ebp),%ecx
  104386:	8b 55 d8             	mov    -0x28(%ebp),%edx
  104389:	8b 75 d8             	mov    -0x28(%ebp),%esi
  10438c:	89 0c 24             	mov    %ecx,(%esp)
  10438f:	89 54 24 04          	mov    %edx,0x4(%esp)
  104393:	89 74 24 08          	mov    %esi,0x8(%esp)
  104397:	c7 44 24 0c 00 00 00 	movl   $0x0,0xc(%esp)
  10439e:	00 
  10439f:	89 45 b8             	mov    %eax,-0x48(%ebp)
  1043a2:	e8 99 00 00 00       	call   104440 <map_address_context>
	}

	map_address_context(pagedir_ptr, (uint32_t) active_context, phys_context,
			0);

	for (i = 0x1000; i < (uint32_t) &kernel_end; i += 0x1000) {
  1043a7:	8b 45 d8             	mov    -0x28(%ebp),%eax
  1043aa:	05 00 10 00 00       	add    $0x1000,%eax
  1043af:	89 45 d8             	mov    %eax,-0x28(%ebp)
  1043b2:	e9 b8 ff ff ff       	jmp    10436f <vmm_create_vpdraw+0x23f>
		map_address_context(pagedir_ptr, i, i, 0);
	}

	uint32_t* pd_ptr = context->pagedir;
  1043b7:	8b 45 e8             	mov    -0x18(%ebp),%eax
  1043ba:	8b 00                	mov    (%eax),%eax
  1043bc:	89 45 cc             	mov    %eax,-0x34(%ebp)
	context->pagedir = (uint32_t*) phys_pagedir;
  1043bf:	8b 45 e4             	mov    -0x1c(%ebp),%eax
  1043c2:	8b 4d e8             	mov    -0x18(%ebp),%ecx
  1043c5:	89 01                	mov    %eax,(%ecx)

	vmm_unmap(pd_ptr);
  1043c7:	8b 45 cc             	mov    -0x34(%ebp),%eax
  1043ca:	89 04 24             	mov    %eax,(%esp)
  1043cd:	e8 fe 00 00 00       	call   1044d0 <vmm_unmap>
	vmm_unmap(context);
  1043d2:	8b 45 e8             	mov    -0x18(%ebp),%eax
  1043d5:	89 04 24             	mov    %eax,(%esp)
  1043d8:	e8 f3 00 00 00       	call   1044d0 <vmm_unmap>

	return pagedir_ptr;
  1043dd:	8b 45 e0             	mov    -0x20(%ebp),%eax
  1043e0:	83 c4 4c             	add    $0x4c,%esp
  1043e3:	5e                   	pop    %esi
  1043e4:	5f                   	pop    %edi
  1043e5:	5b                   	pop    %ebx
  1043e6:	5d                   	pop    %ebp
  1043e7:	c3                   	ret    
  1043e8:	0f 1f 84 00 00 00 00 	nopl   0x0(%eax,%eax,1)
  1043ef:	00 

001043f0 <vmm_alloc_user>:

void* vmm_alloc_ucont(uint32_t cont) {
	return vmm_alloc_in_range(PROGRAM_BOTTOM, 0xFFFFF000, 0, cont);
}

void* vmm_alloc_user(uint32_t* retpaddr) {
  1043f0:	55                   	push   %ebp
  1043f1:	89 e5                	mov    %esp,%ebp
  1043f3:	56                   	push   %esi
  1043f4:	83 ec 24             	sub    $0x24,%esp
  1043f7:	8b 45 08             	mov    0x8(%ebp),%eax
  1043fa:	b9 00 10 40 20       	mov    $0x20401000,%ecx
  1043ff:	ba 00 f0 ff ff       	mov    $0xfffff000,%edx
  104404:	be 01 00 00 00       	mov    $0x1,%esi
  104409:	89 45 f8             	mov    %eax,-0x8(%ebp)
	return vmm_alloc_in_range(PROGRAM_BOTTOM, 0xFFFFF000, retpaddr, 1);
  10440c:	8b 45 f8             	mov    -0x8(%ebp),%eax
  10440f:	c7 04 24 00 10 40 20 	movl   $0x20401000,(%esp)
  104416:	c7 44 24 04 00 f0 ff 	movl   $0xfffff000,0x4(%esp)
  10441d:	ff 
  10441e:	89 44 24 08          	mov    %eax,0x8(%esp)
  104422:	c7 44 24 0c 01 00 00 	movl   $0x1,0xc(%esp)
  104429:	00 
  10442a:	89 75 f4             	mov    %esi,-0xc(%ebp)
  10442d:	89 4d f0             	mov    %ecx,-0x10(%ebp)
  104430:	89 55 ec             	mov    %edx,-0x14(%ebp)
  104433:	e8 b8 04 00 00       	call   1048f0 <vmm_alloc_in_range>
  104438:	83 c4 24             	add    $0x24,%esp
  10443b:	5e                   	pop    %esi
  10443c:	5d                   	pop    %ebp
  10443d:	c3                   	ret    
  10443e:	66 90                	xchg   %ax,%ax

00104440 <map_address_context>:
		map_address_active((uint32_t) vaddr + i, (uint32_t) paddr + i, flags);
	}
}

void map_address_context(uint32_t* pagedir, uint32_t vaddr, uint32_t paddr,
		uint32_t flags) {
  104440:	55                   	push   %ebp
  104441:	89 e5                	mov    %esp,%ebp
  104443:	56                   	push   %esi
  104444:	83 ec 18             	sub    $0x18,%esp
  104447:	8b 45 14             	mov    0x14(%ebp),%eax
  10444a:	8b 4d 10             	mov    0x10(%ebp),%ecx
  10444d:	8b 55 0c             	mov    0xc(%ebp),%edx
  104450:	8b 75 08             	mov    0x8(%ebp),%esi
  104453:	89 75 f8             	mov    %esi,-0x8(%ebp)
  104456:	89 55 f4             	mov    %edx,-0xc(%ebp)
  104459:	89 4d f0             	mov    %ecx,-0x10(%ebp)
  10445c:	89 45 ec             	mov    %eax,-0x14(%ebp)
	uint32_t pd_entry = vaddr >> 22;
  10445f:	8b 45 f4             	mov    -0xc(%ebp),%eax
  104462:	c1 e8 16             	shr    $0x16,%eax
  104465:	89 45 e8             	mov    %eax,-0x18(%ebp)
	uint32_t pt_entry = (vaddr >> 12) % 1024;
  104468:	8b 45 f4             	mov    -0xc(%ebp),%eax
  10446b:	c1 e8 0c             	shr    $0xc,%eax
  10446e:	25 ff 03 00 00       	and    $0x3ff,%eax
  104473:	89 45 e4             	mov    %eax,-0x1c(%ebp)

	((uint32_t*) (pagedir[pd_entry] & 0xFFFFF000))[pt_entry] = (paddr
  104476:	8b 45 f0             	mov    -0x10(%ebp),%eax
  104479:	25 00 f0 ff ff       	and    $0xfffff000,%eax
  10447e:	0d 01 00 00 00       	or     $0x1,%eax
  104483:	0d 02 00 00 00       	or     $0x2,%eax
  104488:	8b 4d ec             	mov    -0x14(%ebp),%ecx
  10448b:	81 e1 ff 0f 00 00    	and    $0xfff,%ecx
  104491:	09 c8                	or     %ecx,%eax
  104493:	8b 4d e4             	mov    -0x1c(%ebp),%ecx
  104496:	8b 55 e8             	mov    -0x18(%ebp),%edx
  104499:	8b 75 f8             	mov    -0x8(%ebp),%esi
  10449c:	8b 14 96             	mov    (%esi,%edx,4),%edx
  10449f:	81 e2 00 f0 ff ff    	and    $0xfffff000,%edx
  1044a5:	8b 0c 8a             	mov    (%edx,%ecx,4),%ecx
  1044a8:	81 e1 04 02 00 00    	and    $0x204,%ecx
  1044ae:	09 c8                	or     %ecx,%eax
  1044b0:	8b 4d e4             	mov    -0x1c(%ebp),%ecx
  1044b3:	8b 55 e8             	mov    -0x18(%ebp),%edx
  1044b6:	8b 75 f8             	mov    -0x8(%ebp),%esi
  1044b9:	8b 14 96             	mov    (%esi,%edx,4),%edx
  1044bc:	81 e2 00 f0 ff ff    	and    $0xfffff000,%edx
  1044c2:	89 04 8a             	mov    %eax,(%edx,%ecx,4)
			& 0xFFFFF000) | PT_PRESENT | PT_WRITE | (flags & 0xFFF)
			| (((uint32_t*) (pagedir[pd_entry] & 0xFFFFF000))[pt_entry]
					& (PT_PUBLIC | PT_ALLOCATABLE));
}
  1044c5:	83 c4 18             	add    $0x18,%esp
  1044c8:	5e                   	pop    %esi
  1044c9:	5d                   	pop    %ebp
  1044ca:	c3                   	ret    
  1044cb:	0f 1f 44 00 00       	nopl   0x0(%eax,%eax,1)

001044d0 <vmm_unmap>:
				| (active_pagetables[vaddr >> 12] & PT_PUBLIC);
		asm volatile("invlpg %0" : : "m" (*(char*)vaddr));
	}
}

void vmm_unmap(void* p_vaddr) { //USE ONLY IF YOU KNOW WHAT YOU DO. POTENTIAL MEMORY LEAK!
  1044d0:	55                   	push   %ebp
  1044d1:	89 e5                	mov    %esp,%ebp
  1044d3:	83 ec 08             	sub    $0x8,%esp
  1044d6:	8b 45 08             	mov    0x8(%ebp),%eax
  1044d9:	89 45 fc             	mov    %eax,-0x4(%ebp)
	uint32_t vaddr = (uint32_t) p_vaddr;
  1044dc:	8b 45 fc             	mov    -0x4(%ebp),%eax
  1044df:	89 45 f8             	mov    %eax,-0x8(%ebp)

	if ((active_pagetables[vaddr >> 12] & (PT_ALLOCATABLE | PT_PRESENT))
  1044e2:	8b 45 f8             	mov    -0x8(%ebp),%eax
  1044e5:	c1 e8 0c             	shr    $0xc,%eax
  1044e8:	8b 0d a4 51 10 00    	mov    0x1051a4,%ecx
  1044ee:	8b 04 81             	mov    (%ecx,%eax,4),%eax
  1044f1:	25 01 02 00 00       	and    $0x201,%eax
  1044f6:	3d 01 02 00 00       	cmp    $0x201,%eax
  1044fb:	0f 85 2e 00 00 00    	jne    10452f <vmm_unmap+0x5f>
			== (PT_ALLOCATABLE | PT_PRESENT)) {
		active_pagetables[vaddr >> 12] = PT_ALLOCATABLE
  104501:	8b 45 f8             	mov    -0x8(%ebp),%eax
  104504:	c1 e8 0c             	shr    $0xc,%eax
  104507:	8b 0d a4 51 10 00    	mov    0x1051a4,%ecx
  10450d:	8b 04 81             	mov    (%ecx,%eax,4),%eax
  104510:	25 04 00 00 00       	and    $0x4,%eax
  104515:	0d 00 02 00 00       	or     $0x200,%eax
  10451a:	8b 4d f8             	mov    -0x8(%ebp),%ecx
  10451d:	c1 e9 0c             	shr    $0xc,%ecx
  104520:	8b 15 a4 51 10 00    	mov    0x1051a4,%edx
  104526:	89 04 8a             	mov    %eax,(%edx,%ecx,4)
				| (active_pagetables[vaddr >> 12] & PT_PUBLIC);
		asm volatile("invlpg %0" : : "m" (*(char*)vaddr));
  104529:	8b 45 f8             	mov    -0x8(%ebp),%eax
  10452c:	0f 01 38             	invlpg (%eax)
	}
}
  10452f:	83 c4 08             	add    $0x8,%esp
  104532:	5d                   	pop    %ebp
  104533:	c3                   	ret    
  104534:	66 66 66 2e 0f 1f 84 	data32 data32 nopw %cs:0x0(%eax,%eax,1)
  10453b:	00 00 00 00 00 

00104540 <vmm_free_pdptr>:
	vmm_unmap(context);

	return pagedir_ptr;
}

static void vmm_free_pdptr(uint32_t* pagedir_ptr) {
  104540:	55                   	push   %ebp
  104541:	89 e5                	mov    %esp,%ebp
  104543:	83 ec 18             	sub    $0x18,%esp
  104546:	8b 45 08             	mov    0x8(%ebp),%eax
  104549:	89 45 fc             	mov    %eax,-0x4(%ebp)
	for (uint32_t i = 0; i < 1024; i++) {
  10454c:	c7 45 f8 00 00 00 00 	movl   $0x0,-0x8(%ebp)
  104553:	81 7d f8 00 04 00 00 	cmpl   $0x400,-0x8(%ebp)
  10455a:	0f 83 21 00 00 00    	jae    104581 <vmm_free_pdptr+0x41>
		vmm_unmap((void*) pagedir_ptr[i]);
  104560:	8b 45 f8             	mov    -0x8(%ebp),%eax
  104563:	8b 4d fc             	mov    -0x4(%ebp),%ecx
  104566:	8b 04 81             	mov    (%ecx,%eax,4),%eax
  104569:	89 04 24             	mov    %eax,(%esp)
  10456c:	e8 5f ff ff ff       	call   1044d0 <vmm_unmap>

	return pagedir_ptr;
}

static void vmm_free_pdptr(uint32_t* pagedir_ptr) {
	for (uint32_t i = 0; i < 1024; i++) {
  104571:	8b 45 f8             	mov    -0x8(%ebp),%eax
  104574:	05 01 00 00 00       	add    $0x1,%eax
  104579:	89 45 f8             	mov    %eax,-0x8(%ebp)
  10457c:	e9 d2 ff ff ff       	jmp    104553 <vmm_free_pdptr+0x13>
		vmm_unmap((void*) pagedir_ptr[i]);
	}

	vmm_unmap(pagedir_ptr);
  104581:	8b 45 fc             	mov    -0x4(%ebp),%eax
  104584:	89 04 24             	mov    %eax,(%esp)
  104587:	e8 44 ff ff ff       	call   1044d0 <vmm_unmap>
}
  10458c:	83 c4 18             	add    $0x18,%esp
  10458f:	5d                   	pop    %ebp
  104590:	c3                   	ret    
  104591:	66 66 66 66 66 66 2e 	data32 data32 data32 data32 data32 nopw %cs:0x0(%eax,%eax,1)
  104598:	0f 1f 84 00 00 00 00 
  10459f:	00 

001045a0 <vmm_create_pagedir>:
	vmm_free_pdptr(pdptr);

	return phys_pagedir;
}

uint32_t vmm_create_pagedir() {
  1045a0:	55                   	push   %ebp
  1045a1:	89 e5                	mov    %esp,%ebp
  1045a3:	83 ec 18             	sub    $0x18,%esp
  1045a6:	8d 45 fc             	lea    -0x4(%ebp),%eax
	uint32_t phys_pagedir;
	uint32_t* pdptr = vmm_create_vpdraw(&phys_pagedir);
  1045a9:	89 04 24             	mov    %eax,(%esp)
  1045ac:	e8 7f fb ff ff       	call   104130 <vmm_create_vpdraw>
  1045b1:	89 45 f8             	mov    %eax,-0x8(%ebp)
	vmm_free_pdptr(pdptr);
  1045b4:	8b 45 f8             	mov    -0x8(%ebp),%eax
  1045b7:	89 04 24             	mov    %eax,(%esp)
  1045ba:	e8 81 ff ff ff       	call   104540 <vmm_free_pdptr>

	return phys_pagedir;
  1045bf:	8b 45 fc             	mov    -0x4(%ebp),%eax
  1045c2:	83 c4 18             	add    $0x18,%esp
  1045c5:	5d                   	pop    %ebp
  1045c6:	c3                   	ret    
  1045c7:	66 0f 1f 84 00 00 00 	nopw   0x0(%eax,%eax,1)
  1045ce:	00 00 

001045d0 <vmm_resolve>:
}

uint32_t vmm_resolve(void* vaddr) {
  1045d0:	55                   	push   %ebp
  1045d1:	89 e5                	mov    %esp,%ebp
  1045d3:	50                   	push   %eax
  1045d4:	8b 45 08             	mov    0x8(%ebp),%eax
  1045d7:	89 45 fc             	mov    %eax,-0x4(%ebp)
	return active_pagetables[(uint32_t) vaddr >> 12] & 0xFFFFF000;
  1045da:	8b 45 fc             	mov    -0x4(%ebp),%eax
  1045dd:	c1 e8 0c             	shr    $0xc,%eax
  1045e0:	8b 0d a4 51 10 00    	mov    0x1051a4,%ecx
  1045e6:	8b 04 81             	mov    (%ecx,%eax,4),%eax
  1045e9:	25 00 f0 ff ff       	and    $0xfffff000,%eax
  1045ee:	83 c4 04             	add    $0x4,%esp
  1045f1:	5d                   	pop    %ebp
  1045f2:	c3                   	ret    
  1045f3:	66 66 66 66 2e 0f 1f 	data32 data32 data32 nopw %cs:0x0(%eax,%eax,1)
  1045fa:	84 00 00 00 00 00 

00104600 <vmm_resolve_ppd>:
}

uint32_t vmm_resolve_ppd(uint32_t pdir, void* vaddr) {
  104600:	55                   	push   %ebp
  104601:	89 e5                	mov    %esp,%ebp
  104603:	83 ec 38             	sub    $0x38,%esp
  104606:	8b 45 0c             	mov    0xc(%ebp),%eax
  104609:	8b 4d 08             	mov    0x8(%ebp),%ecx
  10460c:	ba 00 00 00 00       	mov    $0x0,%edx
  104611:	89 4d fc             	mov    %ecx,-0x4(%ebp)
  104614:	89 45 f8             	mov    %eax,-0x8(%ebp)
	uint32_t pd_entry = (uint32_t) vaddr >> 22;
  104617:	8b 45 f8             	mov    -0x8(%ebp),%eax
  10461a:	c1 e8 16             	shr    $0x16,%eax
  10461d:	89 45 f4             	mov    %eax,-0xc(%ebp)
	uint32_t pt_entry = ((uint32_t) vaddr >> 12) % 1024;
  104620:	8b 45 f8             	mov    -0x8(%ebp),%eax
  104623:	c1 e8 0c             	shr    $0xc,%eax
  104626:	25 ff 03 00 00       	and    $0x3ff,%eax
  10462b:	89 45 f0             	mov    %eax,-0x10(%ebp)

	uint32_t* vpd = vmm_alloc(0);
  10462e:	c7 04 24 00 00 00 00 	movl   $0x0,(%esp)
  104635:	89 55 e0             	mov    %edx,-0x20(%ebp)
  104638:	e8 83 00 00 00       	call   1046c0 <vmm_alloc>
  10463d:	89 45 ec             	mov    %eax,-0x14(%ebp)
	vmm_free(vpd);
  104640:	8b 45 ec             	mov    -0x14(%ebp),%eax
  104643:	89 04 24             	mov    %eax,(%esp)
  104646:	e8 c5 00 00 00       	call   104710 <vmm_free>
  10464b:	b8 00 00 00 00       	mov    $0x0,%eax

	map_address_active((uint32_t) vpd, pdir, 0);
  104650:	8b 4d ec             	mov    -0x14(%ebp),%ecx
  104653:	8b 55 fc             	mov    -0x4(%ebp),%edx
  104656:	89 0c 24             	mov    %ecx,(%esp)
  104659:	89 54 24 04          	mov    %edx,0x4(%esp)
  10465d:	c7 44 24 08 00 00 00 	movl   $0x0,0x8(%esp)
  104664:	00 
  104665:	89 45 dc             	mov    %eax,-0x24(%ebp)
  104668:	e8 23 01 00 00       	call   104790 <map_address_active>
  10466d:	b8 00 00 00 00       	mov    $0x0,%eax
	uint32_t table = vpd[pd_entry] & 0xFFFFF000;
  104672:	8b 4d f4             	mov    -0xc(%ebp),%ecx
  104675:	8b 55 ec             	mov    -0x14(%ebp),%edx
  104678:	8b 0c 8a             	mov    (%edx,%ecx,4),%ecx
  10467b:	81 e1 00 f0 ff ff    	and    $0xfffff000,%ecx
  104681:	89 4d e8             	mov    %ecx,-0x18(%ebp)

	map_address_active((uint32_t) vpd, table, 0);
  104684:	8b 4d ec             	mov    -0x14(%ebp),%ecx
  104687:	8b 55 e8             	mov    -0x18(%ebp),%edx
  10468a:	89 0c 24             	mov    %ecx,(%esp)
  10468d:	89 54 24 04          	mov    %edx,0x4(%esp)
  104691:	c7 44 24 08 00 00 00 	movl   $0x0,0x8(%esp)
  104698:	00 
  104699:	89 45 d8             	mov    %eax,-0x28(%ebp)
  10469c:	e8 ef 00 00 00       	call   104790 <map_address_active>
	uint32_t addr = vpd[pt_entry] & 0xFFFFF000;
  1046a1:	8b 45 f0             	mov    -0x10(%ebp),%eax
  1046a4:	8b 4d ec             	mov    -0x14(%ebp),%ecx
  1046a7:	8b 04 81             	mov    (%ecx,%eax,4),%eax
  1046aa:	25 00 f0 ff ff       	and    $0xfffff000,%eax
  1046af:	89 45 e4             	mov    %eax,-0x1c(%ebp)

	return addr & 0xFFFFF000;
  1046b2:	8b 45 e4             	mov    -0x1c(%ebp),%eax
  1046b5:	25 00 f0 ff ff       	and    $0xfffff000,%eax
  1046ba:	83 c4 38             	add    $0x38,%esp
  1046bd:	5d                   	pop    %ebp
  1046be:	c3                   	ret    
  1046bf:	90                   	nop

001046c0 <vmm_alloc>:

void* vmm_alloc_cont(uint32_t cont) {
	return vmm_alloc_in_range(ALLOCATABLE_BOTTOM, USERSPACE_BOTTOM, 0, cont);
}

void* vmm_alloc(uint32_t* retpaddr) {
  1046c0:	55                   	push   %ebp
  1046c1:	89 e5                	mov    %esp,%ebp
  1046c3:	56                   	push   %esi
  1046c4:	83 ec 24             	sub    $0x24,%esp
  1046c7:	8b 45 08             	mov    0x8(%ebp),%eax
  1046ca:	b9 00 00 80 00       	mov    $0x800000,%ecx
  1046cf:	ba 00 00 00 20       	mov    $0x20000000,%edx
  1046d4:	be 01 00 00 00       	mov    $0x1,%esi
  1046d9:	89 45 f8             	mov    %eax,-0x8(%ebp)
	return vmm_alloc_in_range(ALLOCATABLE_BOTTOM, USERSPACE_BOTTOM, retpaddr, 1);
  1046dc:	8b 45 f8             	mov    -0x8(%ebp),%eax
  1046df:	c7 04 24 00 00 80 00 	movl   $0x800000,(%esp)
  1046e6:	c7 44 24 04 00 00 00 	movl   $0x20000000,0x4(%esp)
  1046ed:	20 
  1046ee:	89 44 24 08          	mov    %eax,0x8(%esp)
  1046f2:	c7 44 24 0c 01 00 00 	movl   $0x1,0xc(%esp)
  1046f9:	00 
  1046fa:	89 75 f4             	mov    %esi,-0xc(%ebp)
  1046fd:	89 4d f0             	mov    %ecx,-0x10(%ebp)
  104700:	89 55 ec             	mov    %edx,-0x14(%ebp)
  104703:	e8 e8 01 00 00       	call   1048f0 <vmm_alloc_in_range>
  104708:	83 c4 24             	add    $0x24,%esp
  10470b:	5e                   	pop    %esi
  10470c:	5d                   	pop    %ebp
  10470d:	c3                   	ret    
  10470e:	66 90                	xchg   %ax,%ax

00104710 <vmm_free>:
			| PT_WRITE | (flags & 0xFFF)
			| (active_pagetables[vaddr >> 12] & (PT_PUBLIC | PT_ALLOCATABLE));
	asm volatile("invlpg %0" : : "m" (*(char*)vaddr));
}

void vmm_free(void* p_vaddr) {
  104710:	55                   	push   %ebp
  104711:	89 e5                	mov    %esp,%ebp
  104713:	83 ec 18             	sub    $0x18,%esp
  104716:	8b 45 08             	mov    0x8(%ebp),%eax
  104719:	89 45 fc             	mov    %eax,-0x4(%ebp)
	uint32_t vaddr = (uint32_t) p_vaddr;
  10471c:	8b 45 fc             	mov    -0x4(%ebp),%eax
  10471f:	89 45 f8             	mov    %eax,-0x8(%ebp)

	if ((active_pagetables[vaddr >> 12] & (PT_ALLOCATABLE | PT_PRESENT))
  104722:	8b 45 f8             	mov    -0x8(%ebp),%eax
  104725:	c1 e8 0c             	shr    $0xc,%eax
  104728:	8b 0d a4 51 10 00    	mov    0x1051a4,%ecx
  10472e:	8b 04 81             	mov    (%ecx,%eax,4),%eax
  104731:	25 01 02 00 00       	and    $0x201,%eax
  104736:	3d 01 02 00 00       	cmp    $0x201,%eax
  10473b:	0f 85 4a 00 00 00    	jne    10478b <vmm_free+0x7b>
			== (PT_ALLOCATABLE | PT_PRESENT)) {
		pmm_free((void*) (active_pagetables[vaddr >> 12] & 0xFFFFF000));
  104741:	8b 45 f8             	mov    -0x8(%ebp),%eax
  104744:	c1 e8 0c             	shr    $0xc,%eax
  104747:	8b 0d a4 51 10 00    	mov    0x1051a4,%ecx
  10474d:	8b 04 81             	mov    (%ecx,%eax,4),%eax
  104750:	25 00 f0 ff ff       	and    $0xfffff000,%eax
  104755:	89 04 24             	mov    %eax,(%esp)
  104758:	e8 53 d9 ff ff       	call   1020b0 <pmm_free>

		active_pagetables[vaddr >> 12] = PT_ALLOCATABLE
  10475d:	8b 45 f8             	mov    -0x8(%ebp),%eax
  104760:	c1 e8 0c             	shr    $0xc,%eax
  104763:	8b 0d a4 51 10 00    	mov    0x1051a4,%ecx
  104769:	8b 04 81             	mov    (%ecx,%eax,4),%eax
  10476c:	25 04 00 00 00       	and    $0x4,%eax
  104771:	0d 00 02 00 00       	or     $0x200,%eax
  104776:	8b 4d f8             	mov    -0x8(%ebp),%ecx
  104779:	c1 e9 0c             	shr    $0xc,%ecx
  10477c:	8b 15 a4 51 10 00    	mov    0x1051a4,%edx
  104782:	89 04 8a             	mov    %eax,(%edx,%ecx,4)
				| (active_pagetables[vaddr >> 12] & PT_PUBLIC);
		asm volatile("invlpg %0" : : "m" (*(char*)vaddr));
  104785:	8b 45 f8             	mov    -0x8(%ebp),%eax
  104788:	0f 01 38             	invlpg (%eax)
	}
}
  10478b:	83 c4 18             	add    $0x18,%esp
  10478e:	5d                   	pop    %ebp
  10478f:	c3                   	ret    

00104790 <map_address_active>:
			& 0xFFFFF000) | PT_PRESENT | PT_WRITE | (flags & 0xFFF)
			| (((uint32_t*) (pagedir[pd_entry] & 0xFFFFF000))[pt_entry]
					& (PT_PUBLIC | PT_ALLOCATABLE));
}

void map_address_active(uint32_t vaddr, uint32_t paddr, uint32_t flags) {
  104790:	55                   	push   %ebp
  104791:	89 e5                	mov    %esp,%ebp
  104793:	83 ec 0c             	sub    $0xc,%esp
  104796:	8b 45 10             	mov    0x10(%ebp),%eax
  104799:	8b 4d 0c             	mov    0xc(%ebp),%ecx
  10479c:	8b 55 08             	mov    0x8(%ebp),%edx
  10479f:	89 55 fc             	mov    %edx,-0x4(%ebp)
  1047a2:	89 4d f8             	mov    %ecx,-0x8(%ebp)
  1047a5:	89 45 f4             	mov    %eax,-0xc(%ebp)
	active_pagetables[vaddr >> 12] = (paddr & 0xFFFFF000) | PT_PRESENT
  1047a8:	8b 45 f8             	mov    -0x8(%ebp),%eax
  1047ab:	25 00 f0 ff ff       	and    $0xfffff000,%eax
  1047b0:	0d 01 00 00 00       	or     $0x1,%eax
  1047b5:	0d 02 00 00 00       	or     $0x2,%eax
  1047ba:	8b 4d f4             	mov    -0xc(%ebp),%ecx
  1047bd:	81 e1 ff 0f 00 00    	and    $0xfff,%ecx
  1047c3:	09 c8                	or     %ecx,%eax
  1047c5:	8b 4d fc             	mov    -0x4(%ebp),%ecx
  1047c8:	c1 e9 0c             	shr    $0xc,%ecx
  1047cb:	8b 15 a4 51 10 00    	mov    0x1051a4,%edx
  1047d1:	8b 0c 8a             	mov    (%edx,%ecx,4),%ecx
  1047d4:	81 e1 04 02 00 00    	and    $0x204,%ecx
  1047da:	09 c8                	or     %ecx,%eax
  1047dc:	8b 4d fc             	mov    -0x4(%ebp),%ecx
  1047df:	c1 e9 0c             	shr    $0xc,%ecx
  1047e2:	8b 15 a4 51 10 00    	mov    0x1051a4,%edx
  1047e8:	89 04 8a             	mov    %eax,(%edx,%ecx,4)
			| PT_WRITE | (flags & 0xFFF)
			| (active_pagetables[vaddr >> 12] & (PT_PUBLIC | PT_ALLOCATABLE));
	asm volatile("invlpg %0" : : "m" (*(char*)vaddr));
  1047eb:	8b 45 fc             	mov    -0x4(%ebp),%eax
  1047ee:	0f 01 38             	invlpg (%eax)
}
  1047f1:	83 c4 0c             	add    $0xc,%esp
  1047f4:	5d                   	pop    %ebp
  1047f5:	c3                   	ret    
  1047f6:	66 2e 0f 1f 84 00 00 	nopw   %cs:0x0(%eax,%eax,1)
  1047fd:	00 00 00 

00104800 <vmm_map_range>:
	uint32_t addr = vpd[pt_entry] & 0xFFFFF000;

	return addr & 0xFFFFF000;
}

void vmm_map_range(void* vaddr, void* paddr, uint32_t length, uint32_t flags) {
  104800:	55                   	push   %ebp
  104801:	89 e5                	mov    %esp,%ebp
  104803:	56                   	push   %esi
  104804:	83 ec 24             	sub    $0x24,%esp
  104807:	8b 45 14             	mov    0x14(%ebp),%eax
  10480a:	8b 4d 10             	mov    0x10(%ebp),%ecx
  10480d:	8b 55 0c             	mov    0xc(%ebp),%edx
  104810:	8b 75 08             	mov    0x8(%ebp),%esi
  104813:	89 75 f8             	mov    %esi,-0x8(%ebp)
  104816:	89 55 f4             	mov    %edx,-0xc(%ebp)
  104819:	89 4d f0             	mov    %ecx,-0x10(%ebp)
  10481c:	89 45 ec             	mov    %eax,-0x14(%ebp)
	if ((uint32_t) vaddr & 0xFFF)
  10481f:	8b 45 f8             	mov    -0x8(%ebp),%eax
  104822:	25 ff 0f 00 00       	and    $0xfff,%eax
  104827:	3d 00 00 00 00       	cmp    $0x0,%eax
  10482c:	0f 84 05 00 00 00    	je     104837 <vmm_map_range+0x37>
		return;
  104832:	e9 5a 00 00 00       	jmp    104891 <vmm_map_range+0x91>
	if ((uint32_t) paddr & 0xFFF)
  104837:	8b 45 f4             	mov    -0xc(%ebp),%eax
  10483a:	25 ff 0f 00 00       	and    $0xfff,%eax
  10483f:	3d 00 00 00 00       	cmp    $0x0,%eax
  104844:	0f 84 05 00 00 00    	je     10484f <vmm_map_range+0x4f>
		return;
  10484a:	e9 42 00 00 00       	jmp    104891 <vmm_map_range+0x91>

	for (uint32_t i = 0; i < length; i += 0x1000) {
  10484f:	c7 45 e8 00 00 00 00 	movl   $0x0,-0x18(%ebp)
  104856:	8b 45 e8             	mov    -0x18(%ebp),%eax
  104859:	3b 45 f0             	cmp    -0x10(%ebp),%eax
  10485c:	0f 83 2f 00 00 00    	jae    104891 <vmm_map_range+0x91>
		map_address_active((uint32_t) vaddr + i, (uint32_t) paddr + i, flags);
  104862:	8b 45 f8             	mov    -0x8(%ebp),%eax
  104865:	03 45 e8             	add    -0x18(%ebp),%eax
  104868:	8b 4d f4             	mov    -0xc(%ebp),%ecx
  10486b:	03 4d e8             	add    -0x18(%ebp),%ecx
  10486e:	8b 55 ec             	mov    -0x14(%ebp),%edx
  104871:	89 04 24             	mov    %eax,(%esp)
  104874:	89 4c 24 04          	mov    %ecx,0x4(%esp)
  104878:	89 54 24 08          	mov    %edx,0x8(%esp)
  10487c:	e8 0f ff ff ff       	call   104790 <map_address_active>
	if ((uint32_t) vaddr & 0xFFF)
		return;
	if ((uint32_t) paddr & 0xFFF)
		return;

	for (uint32_t i = 0; i < length; i += 0x1000) {
  104881:	8b 45 e8             	mov    -0x18(%ebp),%eax
  104884:	05 00 10 00 00       	add    $0x1000,%eax
  104889:	89 45 e8             	mov    %eax,-0x18(%ebp)
  10488c:	e9 c5 ff ff ff       	jmp    104856 <vmm_map_range+0x56>
		map_address_active((uint32_t) vaddr + i, (uint32_t) paddr + i, flags);
	}
}
  104891:	83 c4 24             	add    $0x24,%esp
  104894:	5e                   	pop    %esi
  104895:	5d                   	pop    %ebp
  104896:	c3                   	ret    
  104897:	66 0f 1f 84 00 00 00 	nopw   0x0(%eax,%eax,1)
  10489e:	00 00 

001048a0 <vmm_alloc_ucont>:
	}

	return vaddr;
}

void* vmm_alloc_ucont(uint32_t cont) {
  1048a0:	55                   	push   %ebp
  1048a1:	89 e5                	mov    %esp,%ebp
  1048a3:	56                   	push   %esi
  1048a4:	83 ec 24             	sub    $0x24,%esp
  1048a7:	8b 45 08             	mov    0x8(%ebp),%eax
  1048aa:	b9 00 10 40 20       	mov    $0x20401000,%ecx
  1048af:	ba 00 f0 ff ff       	mov    $0xfffff000,%edx
  1048b4:	be 00 00 00 00       	mov    $0x0,%esi
  1048b9:	89 45 f8             	mov    %eax,-0x8(%ebp)
	return vmm_alloc_in_range(PROGRAM_BOTTOM, 0xFFFFF000, 0, cont);
  1048bc:	8b 45 f8             	mov    -0x8(%ebp),%eax
  1048bf:	c7 04 24 00 10 40 20 	movl   $0x20401000,(%esp)
  1048c6:	c7 44 24 04 00 f0 ff 	movl   $0xfffff000,0x4(%esp)
  1048cd:	ff 
  1048ce:	c7 44 24 08 00 00 00 	movl   $0x0,0x8(%esp)
  1048d5:	00 
  1048d6:	89 44 24 0c          	mov    %eax,0xc(%esp)
  1048da:	89 75 f4             	mov    %esi,-0xc(%ebp)
  1048dd:	89 4d f0             	mov    %ecx,-0x10(%ebp)
  1048e0:	89 55 ec             	mov    %edx,-0x14(%ebp)
  1048e3:	e8 08 00 00 00       	call   1048f0 <vmm_alloc_in_range>
  1048e8:	83 c4 24             	add    $0x24,%esp
  1048eb:	5e                   	pop    %esi
  1048ec:	5d                   	pop    %ebp
  1048ed:	c3                   	ret    
  1048ee:	66 90                	xchg   %ax,%ax

001048f0 <vmm_alloc_in_range>:
		asm volatile("invlpg %0" : : "m" (*(char*)vaddr));
	}
}

static void* vmm_alloc_in_range(uint32_t low, uint32_t high, uint32_t* retpaddr,
		uint32_t cont) {
  1048f0:	55                   	push   %ebp
  1048f1:	89 e5                	mov    %esp,%ebp
  1048f3:	56                   	push   %esi
  1048f4:	83 ec 34             	sub    $0x34,%esp
  1048f7:	8b 45 14             	mov    0x14(%ebp),%eax
  1048fa:	8b 4d 10             	mov    0x10(%ebp),%ecx
  1048fd:	8b 55 0c             	mov    0xc(%ebp),%edx
  104900:	8b 75 08             	mov    0x8(%ebp),%esi
  104903:	89 75 f8             	mov    %esi,-0x8(%ebp)
  104906:	89 55 f4             	mov    %edx,-0xc(%ebp)
  104909:	89 4d f0             	mov    %ecx,-0x10(%ebp)
  10490c:	89 45 ec             	mov    %eax,-0x14(%ebp)
	void* vaddr = 0;
  10490f:	c7 45 e8 00 00 00 00 	movl   $0x0,-0x18(%ebp)
	uint32_t i = 0;
  104916:	c7 45 e4 00 00 00 00 	movl   $0x0,-0x1c(%ebp)
	uint32_t c = 0;
  10491d:	c7 45 e0 00 00 00 00 	movl   $0x0,-0x20(%ebp)

	for (i = (low & 0xFFFFF000); i < high; i += 0x1000) {
  104924:	8b 45 f8             	mov    -0x8(%ebp),%eax
  104927:	25 00 f0 ff ff       	and    $0xfffff000,%eax
  10492c:	89 45 e4             	mov    %eax,-0x1c(%ebp)
  10492f:	8b 45 e4             	mov    -0x1c(%ebp),%eax
  104932:	3b 45 f4             	cmp    -0xc(%ebp),%eax
  104935:	0f 83 6f 00 00 00    	jae    1049aa <vmm_alloc_in_range+0xba>
		if ((active_pagetables[i >> 12] & (PT_ALLOCATABLE | PT_PRESENT))
  10493b:	8b 45 e4             	mov    -0x1c(%ebp),%eax
  10493e:	c1 e8 0c             	shr    $0xc,%eax
  104941:	8b 0d a4 51 10 00    	mov    0x1051a4,%ecx
  104947:	8b 04 81             	mov    (%ecx,%eax,4),%eax
  10494a:	25 01 02 00 00       	and    $0x201,%eax
  10494f:	3d 00 02 00 00       	cmp    $0x200,%eax
  104954:	0f 85 34 00 00 00    	jne    10498e <vmm_alloc_in_range+0x9e>
				== PT_ALLOCATABLE) {
			if (c == 0)
  10495a:	81 7d e0 00 00 00 00 	cmpl   $0x0,-0x20(%ebp)
  104961:	0f 85 06 00 00 00    	jne    10496d <vmm_alloc_in_range+0x7d>
				vaddr = (void*) i;
  104967:	8b 45 e4             	mov    -0x1c(%ebp),%eax
  10496a:	89 45 e8             	mov    %eax,-0x18(%ebp)
			c++;
  10496d:	8b 45 e0             	mov    -0x20(%ebp),%eax
  104970:	05 01 00 00 00       	add    $0x1,%eax
  104975:	89 45 e0             	mov    %eax,-0x20(%ebp)
			if (c >= cont)
  104978:	8b 45 e0             	mov    -0x20(%ebp),%eax
  10497b:	3b 45 ec             	cmp    -0x14(%ebp),%eax
  10497e:	0f 82 05 00 00 00    	jb     104989 <vmm_alloc_in_range+0x99>
				break;
  104984:	e9 21 00 00 00       	jmp    1049aa <vmm_alloc_in_range+0xba>
		} else {
  104989:	e9 07 00 00 00       	jmp    104995 <vmm_alloc_in_range+0xa5>
			c = 0;
  10498e:	c7 45 e0 00 00 00 00 	movl   $0x0,-0x20(%ebp)
		}
	}
  104995:	e9 00 00 00 00       	jmp    10499a <vmm_alloc_in_range+0xaa>
		uint32_t cont) {
	void* vaddr = 0;
	uint32_t i = 0;
	uint32_t c = 0;

	for (i = (low & 0xFFFFF000); i < high; i += 0x1000) {
  10499a:	8b 45 e4             	mov    -0x1c(%ebp),%eax
  10499d:	05 00 10 00 00       	add    $0x1000,%eax
  1049a2:	89 45 e4             	mov    %eax,-0x1c(%ebp)
  1049a5:	e9 85 ff ff ff       	jmp    10492f <vmm_alloc_in_range+0x3f>
		} else {
			c = 0;
		}
	}

	uint32_t off = 0;
  1049aa:	c7 45 dc 00 00 00 00 	movl   $0x0,-0x24(%ebp)

	while (c--) {
  1049b1:	8b 45 e0             	mov    -0x20(%ebp),%eax
  1049b4:	89 c1                	mov    %eax,%ecx
  1049b6:	81 c1 ff ff ff ff    	add    $0xffffffff,%ecx
  1049bc:	89 4d e0             	mov    %ecx,-0x20(%ebp)
  1049bf:	3d 00 00 00 00       	cmp    $0x0,%eax
  1049c4:	0f 84 59 00 00 00    	je     104a23 <vmm_alloc_in_range+0x133>
		vmm_alloc_addr(vaddr + off * 0x1000, off == 0 ? retpaddr : 0);
  1049ca:	8b 45 e8             	mov    -0x18(%ebp),%eax
  1049cd:	8b 4d dc             	mov    -0x24(%ebp),%ecx
  1049d0:	c1 e1 0c             	shl    $0xc,%ecx
  1049d3:	01 c8                	add    %ecx,%eax
  1049d5:	81 7d dc 00 00 00 00 	cmpl   $0x0,-0x24(%ebp)
  1049dc:	89 45 d8             	mov    %eax,-0x28(%ebp)
  1049df:	0f 85 0b 00 00 00    	jne    1049f0 <vmm_alloc_in_range+0x100>
  1049e5:	8b 45 f0             	mov    -0x10(%ebp),%eax
  1049e8:	89 45 d4             	mov    %eax,-0x2c(%ebp)
  1049eb:	e9 0d 00 00 00       	jmp    1049fd <vmm_alloc_in_range+0x10d>
  1049f0:	b8 00 00 00 00       	mov    $0x0,%eax
  1049f5:	89 45 d4             	mov    %eax,-0x2c(%ebp)
  1049f8:	e9 00 00 00 00       	jmp    1049fd <vmm_alloc_in_range+0x10d>
  1049fd:	8b 45 d4             	mov    -0x2c(%ebp),%eax
  104a00:	8b 4d d8             	mov    -0x28(%ebp),%ecx
  104a03:	89 0c 24             	mov    %ecx,(%esp)
  104a06:	89 44 24 04          	mov    %eax,0x4(%esp)
  104a0a:	e8 71 00 00 00       	call   104a80 <vmm_alloc_addr>
		off++;
  104a0f:	8b 4d dc             	mov    -0x24(%ebp),%ecx
  104a12:	81 c1 01 00 00 00    	add    $0x1,%ecx
  104a18:	89 4d dc             	mov    %ecx,-0x24(%ebp)
	}
  104a1b:	89 45 d0             	mov    %eax,-0x30(%ebp)
  104a1e:	e9 8e ff ff ff       	jmp    1049b1 <vmm_alloc_in_range+0xc1>

	return vaddr;
  104a23:	8b 45 e8             	mov    -0x18(%ebp),%eax
  104a26:	83 c4 34             	add    $0x34,%esp
  104a29:	5e                   	pop    %esi
  104a2a:	5d                   	pop    %ebp
  104a2b:	c3                   	ret    
  104a2c:	0f 1f 40 00          	nopl   0x0(%eax)

00104a30 <vmm_alloc_cont>:

void* vmm_alloc_user(uint32_t* retpaddr) {
	return vmm_alloc_in_range(PROGRAM_BOTTOM, 0xFFFFF000, retpaddr, 1);
}

void* vmm_alloc_cont(uint32_t cont) {
  104a30:	55                   	push   %ebp
  104a31:	89 e5                	mov    %esp,%ebp
  104a33:	56                   	push   %esi
  104a34:	83 ec 24             	sub    $0x24,%esp
  104a37:	8b 45 08             	mov    0x8(%ebp),%eax
  104a3a:	b9 00 00 80 00       	mov    $0x800000,%ecx
  104a3f:	ba 00 00 00 20       	mov    $0x20000000,%edx
  104a44:	be 00 00 00 00       	mov    $0x0,%esi
  104a49:	89 45 f8             	mov    %eax,-0x8(%ebp)
	return vmm_alloc_in_range(ALLOCATABLE_BOTTOM, USERSPACE_BOTTOM, 0, cont);
  104a4c:	8b 45 f8             	mov    -0x8(%ebp),%eax
  104a4f:	c7 04 24 00 00 80 00 	movl   $0x800000,(%esp)
  104a56:	c7 44 24 04 00 00 00 	movl   $0x20000000,0x4(%esp)
  104a5d:	20 
  104a5e:	c7 44 24 08 00 00 00 	movl   $0x0,0x8(%esp)
  104a65:	00 
  104a66:	89 44 24 0c          	mov    %eax,0xc(%esp)
  104a6a:	89 75 f4             	mov    %esi,-0xc(%ebp)
  104a6d:	89 4d f0             	mov    %ecx,-0x10(%ebp)
  104a70:	89 55 ec             	mov    %edx,-0x14(%ebp)
  104a73:	e8 78 fe ff ff       	call   1048f0 <vmm_alloc_in_range>
  104a78:	83 c4 24             	add    $0x24,%esp
  104a7b:	5e                   	pop    %esi
  104a7c:	5d                   	pop    %ebp
  104a7d:	c3                   	ret    
  104a7e:	66 90                	xchg   %ax,%ax

00104a80 <vmm_alloc_addr>:

void* vmm_alloc(uint32_t* retpaddr) {
	return vmm_alloc_in_range(ALLOCATABLE_BOTTOM, USERSPACE_BOTTOM, retpaddr, 1);
}

void* vmm_alloc_addr(void* reqvaddr, uint32_t* retpaddr) {
  104a80:	55                   	push   %ebp
  104a81:	89 e5                	mov    %esp,%ebp
  104a83:	56                   	push   %esi
  104a84:	83 ec 34             	sub    $0x34,%esp
  104a87:	8b 45 0c             	mov    0xc(%ebp),%eax
  104a8a:	8b 4d 08             	mov    0x8(%ebp),%ecx
  104a8d:	89 4d f4             	mov    %ecx,-0xc(%ebp)
  104a90:	89 45 f0             	mov    %eax,-0x10(%ebp)
	if (reqvaddr == 0) {
  104a93:	81 7d f4 00 00 00 00 	cmpl   $0x0,-0xc(%ebp)
  104a9a:	0f 85 34 00 00 00    	jne    104ad4 <vmm_alloc_addr+0x54>
  104aa0:	8d 05 f4 63 10 00    	lea    0x1063f4,%eax
  104aa6:	b9 00 00 00 00       	mov    $0x0,%ecx
		kprintf(
  104aab:	8b 55 f4             	mov    -0xc(%ebp),%edx
  104aae:	89 04 24             	mov    %eax,(%esp)
  104ab1:	89 54 24 04          	mov    %edx,0x4(%esp)
  104ab5:	c7 44 24 08 00 00 00 	movl   $0x0,0x8(%esp)
  104abc:	00 
  104abd:	89 4d e8             	mov    %ecx,-0x18(%ebp)
  104ac0:	e8 8b ba ff ff       	call   100550 <kprintf>
				"Denied vmm_alloc_addr at %x (Flags: %x) ... this is a potential mm-fault \n",
				reqvaddr, 0);
		return 0;
  104ac5:	c7 45 f8 00 00 00 00 	movl   $0x0,-0x8(%ebp)
  104acc:	89 45 e4             	mov    %eax,-0x1c(%ebp)
  104acf:	e9 9b 00 00 00       	jmp    104b6f <vmm_alloc_addr+0xef>
	}

	if ((active_pagetables[(uint32_t) reqvaddr >> 12]
  104ad4:	8b 45 f4             	mov    -0xc(%ebp),%eax
  104ad7:	c1 e8 0c             	shr    $0xc,%eax
  104ada:	8b 0d a4 51 10 00    	mov    0x1051a4,%ecx
  104ae0:	8b 04 81             	mov    (%ecx,%eax,4),%eax
  104ae3:	25 01 02 00 00       	and    $0x201,%eax
  104ae8:	3d 00 02 00 00       	cmp    $0x200,%eax
  104aed:	0f 84 37 00 00 00    	je     104b2a <vmm_alloc_addr+0xaa>
  104af3:	8d 05 f4 63 10 00    	lea    0x1063f4,%eax
			& (PT_ALLOCATABLE | PT_PRESENT)) != PT_ALLOCATABLE) {
		kprintf(
  104af9:	8b 4d f4             	mov    -0xc(%ebp),%ecx
  104afc:	8b 55 f4             	mov    -0xc(%ebp),%edx
  104aff:	c1 ea 0c             	shr    $0xc,%edx
  104b02:	8b 35 a4 51 10 00    	mov    0x1051a4,%esi
  104b08:	8b 14 96             	mov    (%esi,%edx,4),%edx
  104b0b:	89 04 24             	mov    %eax,(%esp)
  104b0e:	89 4c 24 04          	mov    %ecx,0x4(%esp)
  104b12:	89 54 24 08          	mov    %edx,0x8(%esp)
  104b16:	e8 35 ba ff ff       	call   100550 <kprintf>
				"Denied vmm_alloc_addr at %x (Flags: %x) ... this is a potential mm-fault \n",
				reqvaddr, active_pagetables[(uint32_t) reqvaddr >> 12]);
		return 0;
  104b1b:	c7 45 f8 00 00 00 00 	movl   $0x0,-0x8(%ebp)
  104b22:	89 45 e0             	mov    %eax,-0x20(%ebp)
  104b25:	e9 45 00 00 00       	jmp    104b6f <vmm_alloc_addr+0xef>
  104b2a:	b8 04 02 00 00       	mov    $0x204,%eax
	}

	uint32_t paddr = (uint32_t) pmm_alloc();
  104b2f:	89 45 dc             	mov    %eax,-0x24(%ebp)
  104b32:	e8 59 d3 ff ff       	call   101e90 <pmm_alloc>
  104b37:	89 45 ec             	mov    %eax,-0x14(%ebp)
	map_address_active((uint32_t) reqvaddr, paddr, PT_PUBLIC | PT_ALLOCATABLE);
  104b3a:	8b 45 f4             	mov    -0xc(%ebp),%eax
  104b3d:	8b 4d ec             	mov    -0x14(%ebp),%ecx
  104b40:	89 04 24             	mov    %eax,(%esp)
  104b43:	89 4c 24 04          	mov    %ecx,0x4(%esp)
  104b47:	c7 44 24 08 04 02 00 	movl   $0x204,0x8(%esp)
  104b4e:	00 
  104b4f:	e8 3c fc ff ff       	call   104790 <map_address_active>

	if (retpaddr != 0)
  104b54:	81 7d f0 00 00 00 00 	cmpl   $0x0,-0x10(%ebp)
  104b5b:	0f 84 08 00 00 00    	je     104b69 <vmm_alloc_addr+0xe9>
		*retpaddr = paddr;
  104b61:	8b 45 ec             	mov    -0x14(%ebp),%eax
  104b64:	8b 4d f0             	mov    -0x10(%ebp),%ecx
  104b67:	89 01                	mov    %eax,(%ecx)

	return reqvaddr;
  104b69:	8b 45 f4             	mov    -0xc(%ebp),%eax
  104b6c:	89 45 f8             	mov    %eax,-0x8(%ebp)
}
  104b6f:	8b 45 f8             	mov    -0x8(%ebp),%eax
  104b72:	83 c4 34             	add    $0x34,%esp
  104b75:	5e                   	pop    %esi
  104b76:	5d                   	pop    %ebp
  104b77:	c3                   	ret    
  104b78:	0f 1f 84 00 00 00 00 	nopl   0x0(%eax,%eax,1)
  104b7f:	00 

00104b80 <vmm_activate_pagedir>:

void vmm_activate_pagedir(uint32_t pdpaddr) {
  104b80:	55                   	push   %ebp
  104b81:	89 e5                	mov    %esp,%ebp
  104b83:	50                   	push   %eax
  104b84:	8b 45 08             	mov    0x8(%ebp),%eax
  104b87:	89 45 fc             	mov    %eax,-0x4(%ebp)
	active_pagedir = pdpaddr;
  104b8a:	8b 45 fc             	mov    -0x4(%ebp),%eax
  104b8d:	a3 54 84 10 00       	mov    %eax,0x108454
	asm volatile("mov %0, %%cr3" : : "r" (pdpaddr));
  104b92:	8b 45 fc             	mov    -0x4(%ebp),%eax
  104b95:	0f 22 d8             	mov    %eax,%cr3
}
  104b98:	83 c4 04             	add    $0x4,%esp
  104b9b:	5d                   	pop    %ebp
  104b9c:	c3                   	ret    
  104b9d:	0f 1f 00             	nopl   (%eax)

00104ba0 <vmm_init>:

uint32_t vmm_init(void) {
  104ba0:	55                   	push   %ebp
  104ba1:	89 e5                	mov    %esp,%ebp
	//CREATE CONTEXT ************************************************************

	struct vmm_context* context = pmm_alloc();
  104ba3:	53                   	push   %ebx
  104ba4:	57                   	push   %edi
  104ba5:	56                   	push   %esi
  104ba6:	83 ec 3c             	sub    $0x3c,%esp
  104ba9:	e8 e2 d2 ff ff       	call   101e90 <pmm_alloc>
  104bae:	89 45 f0             	mov    %eax,-0x10(%ebp)
	uint32_t i, i2;

	context->pagedir = pmm_alloc();
  104bb1:	e8 da d2 ff ff       	call   101e90 <pmm_alloc>
  104bb6:	8b 4d f0             	mov    -0x10(%ebp),%ecx
  104bb9:	89 01                	mov    %eax,(%ecx)

	for (i = 0; i < 1024; i++) {
  104bbb:	c7 45 ec 00 00 00 00 	movl   $0x0,-0x14(%ebp)
  104bc2:	81 7d ec 00 04 00 00 	cmpl   $0x400,-0x14(%ebp)
  104bc9:	0f 83 d6 00 00 00    	jae    104ca5 <vmm_init+0x105>
		context->pagedir[i] = ((uint32_t) pmm_alloc());
  104bcf:	e8 bc d2 ff ff       	call   101e90 <pmm_alloc>
  104bd4:	8b 4d ec             	mov    -0x14(%ebp),%ecx
  104bd7:	8b 55 f0             	mov    -0x10(%ebp),%edx
  104bda:	8b 12                	mov    (%edx),%edx
  104bdc:	89 04 8a             	mov    %eax,(%edx,%ecx,4)
		if (i < PMEM_TABLES) {
  104bdf:	81 7d ec 80 00 00 00 	cmpl   $0x80,-0x14(%ebp)
  104be6:	0f 83 15 00 00 00    	jae    104c01 <vmm_init+0x61>
			kernel_pagetables[i] = context->pagedir[i];
  104bec:	8b 45 ec             	mov    -0x14(%ebp),%eax
  104bef:	8b 4d f0             	mov    -0x10(%ebp),%ecx
  104bf2:	8b 09                	mov    (%ecx),%ecx
  104bf4:	8b 04 81             	mov    (%ecx,%eax,4),%eax
  104bf7:	8b 4d ec             	mov    -0x14(%ebp),%ecx
  104bfa:	89 04 8d 84 c4 16 00 	mov    %eax,0x16c484(,%ecx,4)
		}

		context->pagedir[i] |= PD_PRESENT | PD_WRITE | PD_PUBLIC;
  104c01:	8b 45 ec             	mov    -0x14(%ebp),%eax
  104c04:	8b 4d f0             	mov    -0x10(%ebp),%ecx
  104c07:	8b 09                	mov    (%ecx),%ecx
  104c09:	8b 14 81             	mov    (%ecx,%eax,4),%edx
  104c0c:	81 ca 07 00 00 00    	or     $0x7,%edx
  104c12:	89 14 81             	mov    %edx,(%ecx,%eax,4)

		for (i2 = 0; i2 < 1024; i2++) {
  104c15:	c7 45 e8 00 00 00 00 	movl   $0x0,-0x18(%ebp)
  104c1c:	81 7d e8 00 04 00 00 	cmpl   $0x400,-0x18(%ebp)
  104c23:	0f 83 67 00 00 00    	jae    104c90 <vmm_init+0xf0>
  104c29:	b8 04 00 00 00       	mov    $0x4,%eax
  104c2e:	b9 00 00 00 00       	mov    $0x0,%ecx
  104c33:	ba 00 02 00 00       	mov    $0x200,%edx
			uint32_t vaddr = (i << 22) + (i2 << 12);
  104c38:	8b 75 ec             	mov    -0x14(%ebp),%esi
  104c3b:	c1 e6 16             	shl    $0x16,%esi
  104c3e:	8b 7d e8             	mov    -0x18(%ebp),%edi
  104c41:	c1 e7 0c             	shl    $0xc,%edi
  104c44:	01 fe                	add    %edi,%esi
  104c46:	89 75 e4             	mov    %esi,-0x1c(%ebp)

			((uint32_t*) (context->pagedir[i] & 0xFFFFF000))[i2] = (
  104c49:	81 7d e4 00 00 80 00 	cmpl   $0x800000,-0x1c(%ebp)
  104c50:	0f 97 c3             	seta   %bl
  104c53:	84 db                	test   %bl,%bl
  104c55:	0f 44 d1             	cmove  %ecx,%edx
  104c58:	81 7d e4 00 10 40 20 	cmpl   $0x20401000,-0x1c(%ebp)
  104c5f:	0f 97 c3             	seta   %bl
  104c62:	84 db                	test   %bl,%bl
  104c64:	0f 44 c1             	cmove  %ecx,%eax
  104c67:	09 c2                	or     %eax,%edx
  104c69:	8b 45 e8             	mov    -0x18(%ebp),%eax
  104c6c:	8b 4d ec             	mov    -0x14(%ebp),%ecx
  104c6f:	8b 75 f0             	mov    -0x10(%ebp),%esi
  104c72:	8b 36                	mov    (%esi),%esi
  104c74:	8b 0c 8e             	mov    (%esi,%ecx,4),%ecx
  104c77:	81 e1 00 f0 ff ff    	and    $0xfffff000,%ecx
  104c7d:	89 14 81             	mov    %edx,(%ecx,%eax,4)
			kernel_pagetables[i] = context->pagedir[i];
		}

		context->pagedir[i] |= PD_PRESENT | PD_WRITE | PD_PUBLIC;

		for (i2 = 0; i2 < 1024; i2++) {
  104c80:	8b 45 e8             	mov    -0x18(%ebp),%eax
  104c83:	05 01 00 00 00       	add    $0x1,%eax
  104c88:	89 45 e8             	mov    %eax,-0x18(%ebp)
  104c8b:	e9 8c ff ff ff       	jmp    104c1c <vmm_init+0x7c>

			((uint32_t*) (context->pagedir[i] & 0xFFFFF000))[i2] = (
					(vaddr > ALLOCATABLE_BOTTOM) ? PT_ALLOCATABLE : 0)
					| ((vaddr > PROGRAM_BOTTOM) ? PT_PUBLIC : 0);
		}
	}
  104c90:	e9 00 00 00 00       	jmp    104c95 <vmm_init+0xf5>
	struct vmm_context* context = pmm_alloc();
	uint32_t i, i2;

	context->pagedir = pmm_alloc();

	for (i = 0; i < 1024; i++) {
  104c95:	8b 45 ec             	mov    -0x14(%ebp),%eax
  104c98:	05 01 00 00 00       	add    $0x1,%eax
  104c9d:	89 45 ec             	mov    %eax,-0x14(%ebp)
  104ca0:	e9 1d ff ff ff       	jmp    104bc2 <vmm_init+0x22>
					(vaddr > ALLOCATABLE_BOTTOM) ? PT_ALLOCATABLE : 0)
					| ((vaddr > PROGRAM_BOTTOM) ? PT_PUBLIC : 0);
		}
	}

	for (i = 0; i < 1024; i++) {
  104ca5:	c7 45 ec 00 00 00 00 	movl   $0x0,-0x14(%ebp)
  104cac:	81 7d ec 00 04 00 00 	cmpl   $0x400,-0x14(%ebp)
  104cb3:	0f 83 5a 00 00 00    	jae    104d13 <vmm_init+0x173>
  104cb9:	b8 00 00 00 00       	mov    $0x0,%eax
		uint32_t paddr = context->pagedir[i] & 0xFFFFF000;
  104cbe:	8b 4d ec             	mov    -0x14(%ebp),%ecx
  104cc1:	8b 55 f0             	mov    -0x10(%ebp),%edx
  104cc4:	8b 12                	mov    (%edx),%edx
  104cc6:	8b 0c 8a             	mov    (%edx,%ecx,4),%ecx
  104cc9:	81 e1 00 f0 ff ff    	and    $0xfffff000,%ecx
  104ccf:	89 4d e0             	mov    %ecx,-0x20(%ebp)
		map_address_context(context->pagedir,
  104cd2:	8b 4d f0             	mov    -0x10(%ebp),%ecx
  104cd5:	8b 09                	mov    (%ecx),%ecx
  104cd7:	8b 15 a4 51 10 00    	mov    0x1051a4,%edx
  104cdd:	8b 75 ec             	mov    -0x14(%ebp),%esi
  104ce0:	c1 e6 0c             	shl    $0xc,%esi
  104ce3:	01 f2                	add    %esi,%edx
  104ce5:	8b 75 e0             	mov    -0x20(%ebp),%esi
  104ce8:	89 0c 24             	mov    %ecx,(%esp)
  104ceb:	89 54 24 04          	mov    %edx,0x4(%esp)
  104cef:	89 74 24 08          	mov    %esi,0x8(%esp)
  104cf3:	c7 44 24 0c 00 00 00 	movl   $0x0,0xc(%esp)
  104cfa:	00 
  104cfb:	89 45 d8             	mov    %eax,-0x28(%ebp)
  104cfe:	e8 3d f7 ff ff       	call   104440 <map_address_context>
					(vaddr > ALLOCATABLE_BOTTOM) ? PT_ALLOCATABLE : 0)
					| ((vaddr > PROGRAM_BOTTOM) ? PT_PUBLIC : 0);
		}
	}

	for (i = 0; i < 1024; i++) {
  104d03:	8b 45 ec             	mov    -0x14(%ebp),%eax
  104d06:	05 01 00 00 00       	add    $0x1,%eax
  104d0b:	89 45 ec             	mov    %eax,-0x14(%ebp)
  104d0e:	e9 99 ff ff ff       	jmp    104cac <vmm_init+0x10c>
  104d13:	b8 00 00 00 00       	mov    $0x0,%eax
		uint32_t paddr = context->pagedir[i] & 0xFFFFF000;
		map_address_context(context->pagedir,
				(uint32_t) active_pagetables + i * 0x1000, paddr, 0);
	}

	map_address_context(context->pagedir, (uint32_t) active_context,
  104d18:	8b 4d f0             	mov    -0x10(%ebp),%ecx
  104d1b:	8b 09                	mov    (%ecx),%ecx
  104d1d:	8b 15 a8 51 10 00    	mov    0x1051a8,%edx
  104d23:	8b 75 f0             	mov    -0x10(%ebp),%esi
  104d26:	89 0c 24             	mov    %ecx,(%esp)
  104d29:	89 54 24 04          	mov    %edx,0x4(%esp)
  104d2d:	89 74 24 08          	mov    %esi,0x8(%esp)
  104d31:	c7 44 24 0c 00 00 00 	movl   $0x0,0xc(%esp)
  104d38:	00 
  104d39:	89 45 d4             	mov    %eax,-0x2c(%ebp)
  104d3c:	e8 ff f6 ff ff       	call   104440 <map_address_context>
			(uint32_t) context, 0);

	for (i = 0x1000; i < (uint32_t) &kernel_end; i += 0x1000) {
  104d41:	c7 45 ec 00 10 00 00 	movl   $0x1000,-0x14(%ebp)
  104d48:	8d 05 00 d0 16 00    	lea    0x16d000,%eax
  104d4e:	39 45 ec             	cmp    %eax,-0x14(%ebp)
  104d51:	0f 83 3b 00 00 00    	jae    104d92 <vmm_init+0x1f2>
  104d57:	b8 00 00 00 00       	mov    $0x0,%eax
		map_address_context(context->pagedir, i, i, 0);
  104d5c:	8b 4d f0             	mov    -0x10(%ebp),%ecx
  104d5f:	8b 09                	mov    (%ecx),%ecx
  104d61:	8b 55 ec             	mov    -0x14(%ebp),%edx
  104d64:	8b 75 ec             	mov    -0x14(%ebp),%esi
  104d67:	89 0c 24             	mov    %ecx,(%esp)
  104d6a:	89 54 24 04          	mov    %edx,0x4(%esp)
  104d6e:	89 74 24 08          	mov    %esi,0x8(%esp)
  104d72:	c7 44 24 0c 00 00 00 	movl   $0x0,0xc(%esp)
  104d79:	00 
  104d7a:	89 45 d0             	mov    %eax,-0x30(%ebp)
  104d7d:	e8 be f6 ff ff       	call   104440 <map_address_context>
	}

	map_address_context(context->pagedir, (uint32_t) active_context,
			(uint32_t) context, 0);

	for (i = 0x1000; i < (uint32_t) &kernel_end; i += 0x1000) {
  104d82:	8b 45 ec             	mov    -0x14(%ebp),%eax
  104d85:	05 00 10 00 00       	add    $0x1000,%eax
  104d8a:	89 45 ec             	mov    %eax,-0x14(%ebp)
  104d8d:	e9 b6 ff ff ff       	jmp    104d48 <vmm_init+0x1a8>
		map_address_context(context->pagedir, i, i, 0);
	}

	//END CREATE CONTEXT ********************************************************

	vmm_activate_pagedir((uint32_t) context->pagedir);
  104d92:	8b 45 f0             	mov    -0x10(%ebp),%eax
  104d95:	8b 00                	mov    (%eax),%eax
  104d97:	89 04 24             	mov    %eax,(%esp)
  104d9a:	e8 e1 fd ff ff       	call   104b80 <vmm_activate_pagedir>

	uint32_t cr0;

	asm volatile("mov %%cr0, %0" : "=r" (cr0));
  104d9f:	0f 20 c0             	mov    %cr0,%eax
  104da2:	89 45 dc             	mov    %eax,-0x24(%ebp)
	cr0 |= (1 << 31);
  104da5:	8b 45 dc             	mov    -0x24(%ebp),%eax
  104da8:	0d 00 00 00 80       	or     $0x80000000,%eax
  104dad:	89 45 dc             	mov    %eax,-0x24(%ebp)
	asm volatile("mov %0, %%cr0" : : "r" (cr0));
  104db0:	8b 45 dc             	mov    -0x24(%ebp),%eax
  104db3:	0f 22 c0             	mov    %eax,%cr0

	return (uint32_t) active_context->pagedir;
  104db6:	a1 a8 51 10 00       	mov    0x1051a8,%eax
  104dbb:	8b 00                	mov    (%eax),%eax
  104dbd:	83 c4 3c             	add    $0x3c,%esp
  104dc0:	5e                   	pop    %esi
  104dc1:	5f                   	pop    %edi
  104dc2:	5b                   	pop    %ebx
  104dc3:	5d                   	pop    %ebp
  104dc4:	c3                   	ret    
  104dc5:	66 90                	xchg   %ax,%ax
  104dc7:	90                   	nop

00104dc8 <_start>:
  104dc8:	bc 58 a4 10 00       	mov    $0x10a458,%esp
  104dcd:	53                   	push   %ebx
  104dce:	e8 3d b2 ff ff       	call   100010 <init>

00104dd3 <_stop>:
  104dd3:	fa                   	cli    
  104dd4:	f4                   	hlt    
  104dd5:	eb fc                	jmp    104dd3 <_stop>
