
../../initrfs/ibin/cat:     file format elf32-i386


Disassembly of section .text:

40000000 <main>:
#include "stdint.h"
#include "stdio.h"
#include "process.h"
 
int main(int argc, char* args[])
{
40000000:	8d 4c 24 04          	lea    0x4(%esp),%ecx
40000004:	83 e4 f0             	and    $0xfffffff0,%esp
40000007:	ff 71 fc             	pushl  -0x4(%ecx)
4000000a:	55                   	push   %ebp
4000000b:	89 e5                	mov    %esp,%ebp
4000000d:	51                   	push   %ecx
4000000e:	83 ec 14             	sub    $0x14,%esp
40000011:	89 c8                	mov    %ecx,%eax
    if(argc < 2) {
40000013:	83 38 01             	cmpl   $0x1,(%eax)
40000016:	7f 3d                	jg     40000055 <main+0x55>
        //printf("cat: No file specified\n");

        HANDLE in = fopen("/dev/urandom", FM_READ);
40000018:	83 ec 08             	sub    $0x8,%esp
4000001b:	6a 01                	push   $0x1
4000001d:	68 00 20 00 40       	push   $0x40002000
40000022:	e8 8d 01 00 00       	call   400001b4 <fopen>
40000027:	83 c4 10             	add    $0x10,%esp
4000002a:	89 45 f4             	mov    %eax,-0xc(%ebp)

        char c;

        while(1) {
            fread(in, &c, sizeof(char));
4000002d:	83 ec 04             	sub    $0x4,%esp
40000030:	6a 01                	push   $0x1
40000032:	8d 45 f3             	lea    -0xd(%ebp),%eax
40000035:	50                   	push   %eax
40000036:	ff 75 f4             	pushl  -0xc(%ebp)
40000039:	e8 40 03 00 00       	call   4000037e <fread>
4000003e:	83 c4 10             	add    $0x10,%esp
            putchar(c);
40000041:	8a 45 f3             	mov    -0xd(%ebp),%al
40000044:	0f be c0             	movsbl %al,%eax
40000047:	83 ec 0c             	sub    $0xc,%esp
4000004a:	50                   	push   %eax
4000004b:	e8 97 05 00 00       	call   400005e7 <putchar>
40000050:	83 c4 10             	add    $0x10,%esp
        }
40000053:	eb d8                	jmp    4000002d <main+0x2d>
    }
    return 0;
40000055:	b8 00 00 00 00       	mov    $0x0,%eax
}
4000005a:	8b 4d fc             	mov    -0x4(%ebp),%ecx
4000005d:	c9                   	leave  
4000005e:	8d 61 fc             	lea    -0x4(%ecx),%esp
40000061:	c3                   	ret    
	...

40000064 <getLastVFSErr>:
#include "stdint.h"
#include "stdio.h"
#include "process.h"
 
int main(int argc, char* args[])
40000064:	55                   	push   %ebp
40000065:	89 e5                	mov    %esp,%ebp
40000067:	83 ec 28             	sub    $0x28,%esp
        //printf("cat: No file specified\n");

        HANDLE in = fopen("/dev/urandom", FM_READ);

        char c;

4000006a:	c7 45 e0 0f 00 00 00 	movl   $0xf,-0x20(%ebp)
40000071:	c7 45 e4 00 00 00 00 	movl   $0x0,-0x1c(%ebp)
40000078:	c7 45 e8 00 00 00 00 	movl   $0x0,-0x18(%ebp)
4000007f:	c7 45 ec 00 00 00 00 	movl   $0x0,-0x14(%ebp)
40000086:	c7 45 f0 00 00 00 00 	movl   $0x0,-0x10(%ebp)
4000008d:	c7 45 f4 00 00 00 00 	movl   $0x0,-0xc(%ebp)
        while(1) {
            fread(in, &c, sizeof(char));
40000094:	83 ec 0c             	sub    $0xc,%esp
40000097:	8d 45 e0             	lea    -0x20(%ebp),%eax
4000009a:	50                   	push   %eax
4000009b:	e8 24 11 00 00       	call   400011c4 <syscall>
400000a0:	83 c4 10             	add    $0x10,%esp
            putchar(c);
        }
400000a3:	8b 45 e0             	mov    -0x20(%ebp),%eax
    }
400000a6:	c9                   	leave  
400000a7:	c3                   	ret    

400000a8 <getpmhandle>:
    return 0;
}
400000a8:	55                   	push   %ebp
400000a9:	89 e5                	mov    %esp,%ebp
400000ab:	83 ec 28             	sub    $0x28,%esp
400000ae:	c7 45 e0 14 00 00 00 	movl   $0x14,-0x20(%ebp)
400000b5:	8b 45 08             	mov    0x8(%ebp),%eax
400000b8:	89 45 e4             	mov    %eax,-0x1c(%ebp)
400000bb:	c7 45 e8 00 00 00 00 	movl   $0x0,-0x18(%ebp)
400000c2:	c7 45 ec 00 00 00 00 	movl   $0x0,-0x14(%ebp)
400000c9:	c7 45 f0 00 00 00 00 	movl   $0x0,-0x10(%ebp)
400000d0:	c7 45 f4 00 00 00 00 	movl   $0x0,-0xc(%ebp)
400000d7:	83 ec 0c             	sub    $0xc,%esp
400000da:	8d 45 e0             	lea    -0x20(%ebp),%eax
400000dd:	50                   	push   %eax
400000de:	e8 e1 10 00 00       	call   400011c4 <syscall>
400000e3:	83 c4 10             	add    $0x10,%esp
400000e6:	8b 45 e0             	mov    -0x20(%ebp),%eax
400000e9:	c9                   	leave  
400000ea:	c3                   	ret    

400000eb <getstdout>:
400000eb:	55                   	push   %ebp
400000ec:	89 e5                	mov    %esp,%ebp
400000ee:	83 ec 08             	sub    $0x8,%esp
400000f1:	83 ec 0c             	sub    $0xc,%esp
400000f4:	6a 00                	push   $0x0
400000f6:	e8 ad ff ff ff       	call   400000a8 <getpmhandle>
400000fb:	83 c4 10             	add    $0x10,%esp
400000fe:	c9                   	leave  
400000ff:	c3                   	ret    

40000100 <getstdin>:
40000100:	55                   	push   %ebp
40000101:	89 e5                	mov    %esp,%ebp
40000103:	83 ec 08             	sub    $0x8,%esp
40000106:	83 ec 0c             	sub    $0xc,%esp
40000109:	6a 01                	push   $0x1
4000010b:	e8 98 ff ff ff       	call   400000a8 <getpmhandle>
40000110:	83 c4 10             	add    $0x10,%esp
40000113:	c9                   	leave  
40000114:	c3                   	ret    

40000115 <getstderr>:
40000115:	55                   	push   %ebp
40000116:	89 e5                	mov    %esp,%ebp
40000118:	83 ec 08             	sub    $0x8,%esp
4000011b:	83 ec 0c             	sub    $0xc,%esp
4000011e:	6a 02                	push   $0x2
40000120:	e8 83 ff ff ff       	call   400000a8 <getpmhandle>
40000125:	83 c4 10             	add    $0x10,%esp
40000128:	c9                   	leave  
40000129:	c3                   	ret    

4000012a <fopenpmhandle>:
4000012a:	55                   	push   %ebp
4000012b:	89 e5                	mov    %esp,%ebp
4000012d:	83 ec 28             	sub    $0x28,%esp
40000130:	8b 45 0c             	mov    0xc(%ebp),%eax
40000133:	c7 45 e0 15 00 00 00 	movl   $0x15,-0x20(%ebp)
4000013a:	8b 55 08             	mov    0x8(%ebp),%edx
4000013d:	89 55 e4             	mov    %edx,-0x1c(%ebp)
40000140:	89 45 e8             	mov    %eax,-0x18(%ebp)
40000143:	c7 45 ec 00 00 00 00 	movl   $0x0,-0x14(%ebp)
4000014a:	c7 45 f0 00 00 00 00 	movl   $0x0,-0x10(%ebp)
40000151:	c7 45 f4 00 00 00 00 	movl   $0x0,-0xc(%ebp)
40000158:	83 ec 0c             	sub    $0xc,%esp
4000015b:	8d 45 e0             	lea    -0x20(%ebp),%eax
4000015e:	50                   	push   %eax
4000015f:	e8 60 10 00 00       	call   400011c4 <syscall>
40000164:	83 c4 10             	add    $0x10,%esp
40000167:	8b 45 e0             	mov    -0x20(%ebp),%eax
4000016a:	c9                   	leave  
4000016b:	c3                   	ret    

4000016c <setstdout>:
4000016c:	55                   	push   %ebp
4000016d:	89 e5                	mov    %esp,%ebp
4000016f:	83 ec 08             	sub    $0x8,%esp
40000172:	83 ec 08             	sub    $0x8,%esp
40000175:	ff 75 08             	pushl  0x8(%ebp)
40000178:	6a 00                	push   $0x0
4000017a:	e8 ab ff ff ff       	call   4000012a <fopenpmhandle>
4000017f:	83 c4 10             	add    $0x10,%esp
40000182:	c9                   	leave  
40000183:	c3                   	ret    

40000184 <setstdin>:
40000184:	55                   	push   %ebp
40000185:	89 e5                	mov    %esp,%ebp
40000187:	83 ec 08             	sub    $0x8,%esp
4000018a:	83 ec 08             	sub    $0x8,%esp
4000018d:	ff 75 08             	pushl  0x8(%ebp)
40000190:	6a 01                	push   $0x1
40000192:	e8 93 ff ff ff       	call   4000012a <fopenpmhandle>
40000197:	83 c4 10             	add    $0x10,%esp
4000019a:	c9                   	leave  
4000019b:	c3                   	ret    

4000019c <setstderr>:
4000019c:	55                   	push   %ebp
4000019d:	89 e5                	mov    %esp,%ebp
4000019f:	83 ec 08             	sub    $0x8,%esp
400001a2:	83 ec 08             	sub    $0x8,%esp
400001a5:	ff 75 08             	pushl  0x8(%ebp)
400001a8:	6a 02                	push   $0x2
400001aa:	e8 7b ff ff ff       	call   4000012a <fopenpmhandle>
400001af:	83 c4 10             	add    $0x10,%esp
400001b2:	c9                   	leave  
400001b3:	c3                   	ret    

400001b4 <fopen>:
400001b4:	55                   	push   %ebp
400001b5:	89 e5                	mov    %esp,%ebp
400001b7:	83 ec 28             	sub    $0x28,%esp
400001ba:	8b 45 08             	mov    0x8(%ebp),%eax
400001bd:	c7 45 e0 0a 00 00 00 	movl   $0xa,-0x20(%ebp)
400001c4:	89 45 e4             	mov    %eax,-0x1c(%ebp)
400001c7:	8b 45 0c             	mov    0xc(%ebp),%eax
400001ca:	89 45 e8             	mov    %eax,-0x18(%ebp)
400001cd:	c7 45 ec 00 00 00 00 	movl   $0x0,-0x14(%ebp)
400001d4:	c7 45 f0 00 00 00 00 	movl   $0x0,-0x10(%ebp)
400001db:	c7 45 f4 00 00 00 00 	movl   $0x0,-0xc(%ebp)
400001e2:	83 ec 0c             	sub    $0xc,%esp
400001e5:	8d 45 e0             	lea    -0x20(%ebp),%eax
400001e8:	50                   	push   %eax
400001e9:	e8 d6 0f 00 00       	call   400011c4 <syscall>
400001ee:	83 c4 10             	add    $0x10,%esp
400001f1:	8b 45 e0             	mov    -0x20(%ebp),%eax
400001f4:	c9                   	leave  
400001f5:	c3                   	ret    

400001f6 <fclose>:
400001f6:	55                   	push   %ebp
400001f7:	89 e5                	mov    %esp,%ebp
400001f9:	83 ec 28             	sub    $0x28,%esp
400001fc:	c7 45 e0 0b 00 00 00 	movl   $0xb,-0x20(%ebp)
40000203:	8b 45 08             	mov    0x8(%ebp),%eax
40000206:	89 45 e4             	mov    %eax,-0x1c(%ebp)
40000209:	c7 45 e8 00 00 00 00 	movl   $0x0,-0x18(%ebp)
40000210:	c7 45 ec 00 00 00 00 	movl   $0x0,-0x14(%ebp)
40000217:	c7 45 f0 00 00 00 00 	movl   $0x0,-0x10(%ebp)
4000021e:	c7 45 f4 00 00 00 00 	movl   $0x0,-0xc(%ebp)
40000225:	83 ec 0c             	sub    $0xc,%esp
40000228:	8d 45 e0             	lea    -0x20(%ebp),%eax
4000022b:	50                   	push   %eax
4000022c:	e8 93 0f 00 00       	call   400011c4 <syscall>
40000231:	83 c4 10             	add    $0x10,%esp
40000234:	8b 45 e0             	mov    -0x20(%ebp),%eax
40000237:	c9                   	leave  
40000238:	c3                   	ret    

40000239 <printrwerror>:
40000239:	55                   	push   %ebp
4000023a:	89 e5                	mov    %esp,%ebp
4000023c:	83 ec 08             	sub    $0x8,%esp
4000023f:	83 7d 0c 02          	cmpl   $0x2,0xc(%ebp)
40000243:	75 13                	jne    40000258 <printrwerror+0x1f>
40000245:	83 ec 08             	sub    $0x8,%esp
40000248:	ff 75 08             	pushl  0x8(%ebp)
4000024b:	68 10 20 00 40       	push   $0x40002010
40000250:	e8 46 05 00 00       	call   4000079b <printf>
40000255:	83 c4 10             	add    $0x10,%esp
40000258:	83 7d 0c 03          	cmpl   $0x3,0xc(%ebp)
4000025c:	75 13                	jne    40000271 <printrwerror+0x38>
4000025e:	83 ec 08             	sub    $0x8,%esp
40000261:	ff 75 08             	pushl  0x8(%ebp)
40000264:	68 28 20 00 40       	push   $0x40002028
40000269:	e8 2d 05 00 00       	call   4000079b <printf>
4000026e:	83 c4 10             	add    $0x10,%esp
40000271:	83 7d 0c 04          	cmpl   $0x4,0xc(%ebp)
40000275:	75 13                	jne    4000028a <printrwerror+0x51>
40000277:	83 ec 08             	sub    $0x8,%esp
4000027a:	ff 75 08             	pushl  0x8(%ebp)
4000027d:	68 44 20 00 40       	push   $0x40002044
40000282:	e8 14 05 00 00       	call   4000079b <printf>
40000287:	83 c4 10             	add    $0x10,%esp
4000028a:	83 7d 0c 05          	cmpl   $0x5,0xc(%ebp)
4000028e:	75 13                	jne    400002a3 <printrwerror+0x6a>
40000290:	83 ec 08             	sub    $0x8,%esp
40000293:	ff 75 08             	pushl  0x8(%ebp)
40000296:	68 70 20 00 40       	push   $0x40002070
4000029b:	e8 fb 04 00 00       	call   4000079b <printf>
400002a0:	83 c4 10             	add    $0x10,%esp
400002a3:	c9                   	leave  
400002a4:	c3                   	ret    

400002a5 <frwrite>:
400002a5:	55                   	push   %ebp
400002a6:	89 e5                	mov    %esp,%ebp
400002a8:	83 ec 28             	sub    $0x28,%esp
400002ab:	8b 45 0c             	mov    0xc(%ebp),%eax
400002ae:	c7 45 e0 0c 00 00 00 	movl   $0xc,-0x20(%ebp)
400002b5:	8b 55 08             	mov    0x8(%ebp),%edx
400002b8:	89 55 e4             	mov    %edx,-0x1c(%ebp)
400002bb:	89 45 e8             	mov    %eax,-0x18(%ebp)
400002be:	8b 45 10             	mov    0x10(%ebp),%eax
400002c1:	89 45 ec             	mov    %eax,-0x14(%ebp)
400002c4:	c7 45 f0 00 00 00 00 	movl   $0x0,-0x10(%ebp)
400002cb:	c7 45 f4 00 00 00 00 	movl   $0x0,-0xc(%ebp)
400002d2:	83 ec 0c             	sub    $0xc,%esp
400002d5:	8d 45 e0             	lea    -0x20(%ebp),%eax
400002d8:	50                   	push   %eax
400002d9:	e8 e6 0e 00 00       	call   400011c4 <syscall>
400002de:	83 c4 10             	add    $0x10,%esp
400002e1:	8b 45 e0             	mov    -0x20(%ebp),%eax
400002e4:	c9                   	leave  
400002e5:	c3                   	ret    

400002e6 <fwrite>:
400002e6:	55                   	push   %ebp
400002e7:	89 e5                	mov    %esp,%ebp
400002e9:	83 ec 18             	sub    $0x18,%esp
400002ec:	83 ec 04             	sub    $0x4,%esp
400002ef:	ff 75 10             	pushl  0x10(%ebp)
400002f2:	ff 75 0c             	pushl  0xc(%ebp)
400002f5:	ff 75 08             	pushl  0x8(%ebp)
400002f8:	e8 a8 ff ff ff       	call   400002a5 <frwrite>
400002fd:	83 c4 10             	add    $0x10,%esp
40000300:	89 45 f4             	mov    %eax,-0xc(%ebp)
40000303:	eb 1c                	jmp    40000321 <fwrite+0x3b>
40000305:	e8 db 11 00 00       	call   400014e5 <yield>
4000030a:	83 ec 04             	sub    $0x4,%esp
4000030d:	ff 75 10             	pushl  0x10(%ebp)
40000310:	ff 75 0c             	pushl  0xc(%ebp)
40000313:	ff 75 08             	pushl  0x8(%ebp)
40000316:	e8 8a ff ff ff       	call   400002a5 <frwrite>
4000031b:	83 c4 10             	add    $0x10,%esp
4000031e:	89 45 f4             	mov    %eax,-0xc(%ebp)
40000321:	83 7d f4 01          	cmpl   $0x1,-0xc(%ebp)
40000325:	74 de                	je     40000305 <fwrite+0x1f>
40000327:	83 ec 08             	sub    $0x8,%esp
4000032a:	ff 75 f4             	pushl  -0xc(%ebp)
4000032d:	ff 75 08             	pushl  0x8(%ebp)
40000330:	e8 04 ff ff ff       	call   40000239 <printrwerror>
40000335:	83 c4 10             	add    $0x10,%esp
40000338:	8b 45 f4             	mov    -0xc(%ebp),%eax
4000033b:	c9                   	leave  
4000033c:	c3                   	ret    

4000033d <frread>:
4000033d:	55                   	push   %ebp
4000033e:	89 e5                	mov    %esp,%ebp
40000340:	83 ec 28             	sub    $0x28,%esp
40000343:	8b 45 0c             	mov    0xc(%ebp),%eax
40000346:	c7 45 e0 0d 00 00 00 	movl   $0xd,-0x20(%ebp)
4000034d:	8b 55 08             	mov    0x8(%ebp),%edx
40000350:	89 55 e4             	mov    %edx,-0x1c(%ebp)
40000353:	89 45 e8             	mov    %eax,-0x18(%ebp)
40000356:	8b 45 10             	mov    0x10(%ebp),%eax
40000359:	89 45 ec             	mov    %eax,-0x14(%ebp)
4000035c:	c7 45 f0 00 00 00 00 	movl   $0x0,-0x10(%ebp)
40000363:	c7 45 f4 00 00 00 00 	movl   $0x0,-0xc(%ebp)
4000036a:	83 ec 0c             	sub    $0xc,%esp
4000036d:	8d 45 e0             	lea    -0x20(%ebp),%eax
40000370:	50                   	push   %eax
40000371:	e8 4e 0e 00 00       	call   400011c4 <syscall>
40000376:	83 c4 10             	add    $0x10,%esp
40000379:	8b 45 e0             	mov    -0x20(%ebp),%eax
4000037c:	c9                   	leave  
4000037d:	c3                   	ret    

4000037e <fread>:
4000037e:	55                   	push   %ebp
4000037f:	89 e5                	mov    %esp,%ebp
40000381:	83 ec 18             	sub    $0x18,%esp
40000384:	83 ec 04             	sub    $0x4,%esp
40000387:	ff 75 10             	pushl  0x10(%ebp)
4000038a:	ff 75 0c             	pushl  0xc(%ebp)
4000038d:	ff 75 08             	pushl  0x8(%ebp)
40000390:	e8 a8 ff ff ff       	call   4000033d <frread>
40000395:	83 c4 10             	add    $0x10,%esp
40000398:	89 45 f4             	mov    %eax,-0xc(%ebp)
4000039b:	eb 1c                	jmp    400003b9 <fread+0x3b>
4000039d:	e8 43 11 00 00       	call   400014e5 <yield>
400003a2:	83 ec 04             	sub    $0x4,%esp
400003a5:	ff 75 10             	pushl  0x10(%ebp)
400003a8:	ff 75 0c             	pushl  0xc(%ebp)
400003ab:	ff 75 08             	pushl  0x8(%ebp)
400003ae:	e8 8a ff ff ff       	call   4000033d <frread>
400003b3:	83 c4 10             	add    $0x10,%esp
400003b6:	89 45 f4             	mov    %eax,-0xc(%ebp)
400003b9:	83 7d f4 01          	cmpl   $0x1,-0xc(%ebp)
400003bd:	74 de                	je     4000039d <fread+0x1f>
400003bf:	83 ec 08             	sub    $0x8,%esp
400003c2:	ff 75 f4             	pushl  -0xc(%ebp)
400003c5:	ff 75 08             	pushl  0x8(%ebp)
400003c8:	e8 6c fe ff ff       	call   40000239 <printrwerror>
400003cd:	83 c4 10             	add    $0x10,%esp
400003d0:	8b 45 f4             	mov    -0xc(%ebp),%eax
400003d3:	c9                   	leave  
400003d4:	c3                   	ret    

400003d5 <fmkfifo>:
400003d5:	55                   	push   %ebp
400003d6:	89 e5                	mov    %esp,%ebp
400003d8:	83 ec 28             	sub    $0x28,%esp
400003db:	8b 45 08             	mov    0x8(%ebp),%eax
400003de:	c7 45 e0 0e 00 00 00 	movl   $0xe,-0x20(%ebp)
400003e5:	89 45 e4             	mov    %eax,-0x1c(%ebp)
400003e8:	c7 45 e8 00 00 00 00 	movl   $0x0,-0x18(%ebp)
400003ef:	c7 45 ec 00 00 00 00 	movl   $0x0,-0x14(%ebp)
400003f6:	c7 45 f0 00 00 00 00 	movl   $0x0,-0x10(%ebp)
400003fd:	c7 45 f4 00 00 00 00 	movl   $0x0,-0xc(%ebp)
40000404:	83 ec 0c             	sub    $0xc,%esp
40000407:	8d 45 e0             	lea    -0x20(%ebp),%eax
4000040a:	50                   	push   %eax
4000040b:	e8 b4 0d 00 00       	call   400011c4 <syscall>
40000410:	83 c4 10             	add    $0x10,%esp
40000413:	8b 45 e0             	mov    -0x20(%ebp),%eax
40000416:	c9                   	leave  
40000417:	c3                   	ret    

40000418 <resolveHandle>:
40000418:	55                   	push   %ebp
40000419:	89 e5                	mov    %esp,%ebp
4000041b:	83 ec 08             	sub    $0x8,%esp
4000041e:	81 7d 08 fe 0f 00 00 	cmpl   $0xffe,0x8(%ebp)
40000425:	77 11                	ja     40000438 <resolveHandle+0x20>
40000427:	83 ec 0c             	sub    $0xc,%esp
4000042a:	ff 75 08             	pushl  0x8(%ebp)
4000042d:	e8 76 fc ff ff       	call   400000a8 <getpmhandle>
40000432:	83 c4 10             	add    $0x10,%esp
40000435:	89 45 08             	mov    %eax,0x8(%ebp)
40000438:	8b 45 08             	mov    0x8(%ebp),%eax
4000043b:	c9                   	leave  
4000043c:	c3                   	ret    

4000043d <fgetc>:
4000043d:	55                   	push   %ebp
4000043e:	89 e5                	mov    %esp,%ebp
40000440:	83 ec 18             	sub    $0x18,%esp
40000443:	83 ec 0c             	sub    $0xc,%esp
40000446:	ff 75 08             	pushl  0x8(%ebp)
40000449:	e8 ca ff ff ff       	call   40000418 <resolveHandle>
4000044e:	83 c4 10             	add    $0x10,%esp
40000451:	89 45 08             	mov    %eax,0x8(%ebp)
40000454:	c6 45 f7 00          	movb   $0x0,-0x9(%ebp)
40000458:	83 7d 08 00          	cmpl   $0x0,0x8(%ebp)
4000045c:	74 14                	je     40000472 <fgetc+0x35>
4000045e:	83 ec 04             	sub    $0x4,%esp
40000461:	6a 01                	push   $0x1
40000463:	8d 45 f7             	lea    -0x9(%ebp),%eax
40000466:	50                   	push   %eax
40000467:	ff 75 08             	pushl  0x8(%ebp)
4000046a:	e8 0f ff ff ff       	call   4000037e <fread>
4000046f:	83 c4 10             	add    $0x10,%esp
40000472:	8a 45 f7             	mov    -0x9(%ebp),%al
40000475:	c9                   	leave  
40000476:	c3                   	ret    

40000477 <fgets>:
40000477:	55                   	push   %ebp
40000478:	89 e5                	mov    %esp,%ebp
4000047a:	53                   	push   %ebx
4000047b:	83 ec 14             	sub    $0x14,%esp
4000047e:	c7 45 f4 00 00 00 00 	movl   $0x0,-0xc(%ebp)
40000485:	eb 38                	jmp    400004bf <fgets+0x48>
40000487:	8b 45 f4             	mov    -0xc(%ebp),%eax
4000048a:	89 c3                	mov    %eax,%ebx
4000048c:	03 5d 08             	add    0x8(%ebp),%ebx
4000048f:	83 ec 0c             	sub    $0xc,%esp
40000492:	ff 75 10             	pushl  0x10(%ebp)
40000495:	e8 a3 ff ff ff       	call   4000043d <fgetc>
4000049a:	83 c4 10             	add    $0x10,%esp
4000049d:	88 03                	mov    %al,(%ebx)
4000049f:	8b 45 f4             	mov    -0xc(%ebp),%eax
400004a2:	03 45 08             	add    0x8(%ebp),%eax
400004a5:	8a 00                	mov    (%eax),%al
400004a7:	84 c0                	test   %al,%al
400004a9:	74 0c                	je     400004b7 <fgets+0x40>
400004ab:	8b 45 f4             	mov    -0xc(%ebp),%eax
400004ae:	03 45 08             	add    0x8(%ebp),%eax
400004b1:	8a 00                	mov    (%eax),%al
400004b3:	84 c0                	test   %al,%al
400004b5:	75 05                	jne    400004bc <fgets+0x45>
400004b7:	8b 45 08             	mov    0x8(%ebp),%eax
400004ba:	eb 18                	jmp    400004d4 <fgets+0x5d>
400004bc:	ff 45 f4             	incl   -0xc(%ebp)
400004bf:	8b 45 0c             	mov    0xc(%ebp),%eax
400004c2:	48                   	dec    %eax
400004c3:	3b 45 f4             	cmp    -0xc(%ebp),%eax
400004c6:	7f bf                	jg     40000487 <fgets+0x10>
400004c8:	8b 45 0c             	mov    0xc(%ebp),%eax
400004cb:	03 45 08             	add    0x8(%ebp),%eax
400004ce:	c6 00 00             	movb   $0x0,(%eax)
400004d1:	8b 45 08             	mov    0x8(%ebp),%eax
400004d4:	8b 5d fc             	mov    -0x4(%ebp),%ebx
400004d7:	c9                   	leave  
400004d8:	c3                   	ret    

400004d9 <getc>:
400004d9:	55                   	push   %ebp
400004da:	89 e5                	mov    %esp,%ebp
400004dc:	83 ec 08             	sub    $0x8,%esp
400004df:	83 ec 0c             	sub    $0xc,%esp
400004e2:	ff 75 08             	pushl  0x8(%ebp)
400004e5:	e8 53 ff ff ff       	call   4000043d <fgetc>
400004ea:	83 c4 10             	add    $0x10,%esp
400004ed:	c9                   	leave  
400004ee:	c3                   	ret    

400004ef <getchar>:
400004ef:	55                   	push   %ebp
400004f0:	89 e5                	mov    %esp,%ebp
400004f2:	83 ec 08             	sub    $0x8,%esp
400004f5:	83 ec 0c             	sub    $0xc,%esp
400004f8:	6a 01                	push   $0x1
400004fa:	e8 3e ff ff ff       	call   4000043d <fgetc>
400004ff:	83 c4 10             	add    $0x10,%esp
40000502:	c9                   	leave  
40000503:	c3                   	ret    

40000504 <getln>:
40000504:	55                   	push   %ebp
40000505:	89 e5                	mov    %esp,%ebp
40000507:	83 ec 18             	sub    $0x18,%esp
4000050a:	c7 45 f0 00 00 00 00 	movl   $0x0,-0x10(%ebp)
40000511:	c6 45 f7 00          	movb   $0x0,-0x9(%ebp)
40000515:	eb 5f                	jmp    40000576 <getln+0x72>
40000517:	80 7d f7 0a          	cmpb   $0xa,-0x9(%ebp)
4000051b:	75 0f                	jne    4000052c <getln+0x28>
4000051d:	83 ec 0c             	sub    $0xc,%esp
40000520:	6a 0a                	push   $0xa
40000522:	e8 c0 00 00 00       	call   400005e7 <putchar>
40000527:	83 c4 10             	add    $0x10,%esp
4000052a:	eb 60                	jmp    4000058c <getln+0x88>
4000052c:	80 7d f7 08          	cmpb   $0x8,-0x9(%ebp)
40000530:	75 24                	jne    40000556 <getln+0x52>
40000532:	83 7d f0 00          	cmpl   $0x0,-0x10(%ebp)
40000536:	74 10                	je     40000548 <getln+0x44>
40000538:	ff 4d f0             	decl   -0x10(%ebp)
4000053b:	83 ec 0c             	sub    $0xc,%esp
4000053e:	6a 08                	push   $0x8
40000540:	e8 a2 00 00 00       	call   400005e7 <putchar>
40000545:	83 c4 10             	add    $0x10,%esp
40000548:	8b 45 f0             	mov    -0x10(%ebp),%eax
4000054b:	8b 55 08             	mov    0x8(%ebp),%edx
4000054e:	8d 04 02             	lea    (%edx,%eax,1),%eax
40000551:	c6 00 00             	movb   $0x0,(%eax)
40000554:	eb 20                	jmp    40000576 <getln+0x72>
40000556:	8b 45 f0             	mov    -0x10(%ebp),%eax
40000559:	8b 55 08             	mov    0x8(%ebp),%edx
4000055c:	01 c2                	add    %eax,%edx
4000055e:	8a 45 f7             	mov    -0x9(%ebp),%al
40000561:	88 02                	mov    %al,(%edx)
40000563:	0f be 45 f7          	movsbl -0x9(%ebp),%eax
40000567:	83 ec 0c             	sub    $0xc,%esp
4000056a:	50                   	push   %eax
4000056b:	e8 77 00 00 00       	call   400005e7 <putchar>
40000570:	83 c4 10             	add    $0x10,%esp
40000573:	ff 45 f0             	incl   -0x10(%ebp)
40000576:	83 ec 0c             	sub    $0xc,%esp
40000579:	6a 01                	push   $0x1
4000057b:	e8 bd fe ff ff       	call   4000043d <fgetc>
40000580:	83 c4 10             	add    $0x10,%esp
40000583:	88 45 f7             	mov    %al,-0x9(%ebp)
40000586:	80 7d f7 00          	cmpb   $0x0,-0x9(%ebp)
4000058a:	75 8b                	jne    40000517 <getln+0x13>
4000058c:	8b 45 f0             	mov    -0x10(%ebp),%eax
4000058f:	8b 55 08             	mov    0x8(%ebp),%edx
40000592:	8d 04 02             	lea    (%edx,%eax,1),%eax
40000595:	c6 00 00             	movb   $0x0,(%eax)
40000598:	8b 45 08             	mov    0x8(%ebp),%eax
4000059b:	c9                   	leave  
4000059c:	c3                   	ret    

4000059d <kputc>:
4000059d:	55                   	push   %ebp
4000059e:	89 e5                	mov    %esp,%ebp
400005a0:	83 ec 38             	sub    $0x38,%esp
400005a3:	8b 45 08             	mov    0x8(%ebp),%eax
400005a6:	88 45 d4             	mov    %al,-0x2c(%ebp)
400005a9:	0f be 45 d4          	movsbl -0x2c(%ebp),%eax
400005ad:	c7 45 e0 c9 00 00 00 	movl   $0xc9,-0x20(%ebp)
400005b4:	89 45 e4             	mov    %eax,-0x1c(%ebp)
400005b7:	c7 45 e8 00 00 00 00 	movl   $0x0,-0x18(%ebp)
400005be:	c7 45 ec 00 00 00 00 	movl   $0x0,-0x14(%ebp)
400005c5:	c7 45 f0 00 00 00 00 	movl   $0x0,-0x10(%ebp)
400005cc:	c7 45 f4 00 00 00 00 	movl   $0x0,-0xc(%ebp)
400005d3:	83 ec 0c             	sub    $0xc,%esp
400005d6:	8d 45 e0             	lea    -0x20(%ebp),%eax
400005d9:	50                   	push   %eax
400005da:	e8 e5 0b 00 00       	call   400011c4 <syscall>
400005df:	83 c4 10             	add    $0x10,%esp
400005e2:	8b 45 e0             	mov    -0x20(%ebp),%eax
400005e5:	c9                   	leave  
400005e6:	c3                   	ret    

400005e7 <putchar>:
400005e7:	55                   	push   %ebp
400005e8:	89 e5                	mov    %esp,%ebp
400005ea:	83 ec 18             	sub    $0x18,%esp
400005ed:	8b 45 08             	mov    0x8(%ebp),%eax
400005f0:	88 45 f4             	mov    %al,-0xc(%ebp)
400005f3:	0f be 45 f4          	movsbl -0xc(%ebp),%eax
400005f7:	83 ec 08             	sub    $0x8,%esp
400005fa:	6a 00                	push   $0x0
400005fc:	50                   	push   %eax
400005fd:	e8 26 00 00 00       	call   40000628 <fputc>
40000602:	83 c4 10             	add    $0x10,%esp
40000605:	c9                   	leave  
40000606:	c3                   	ret    

40000607 <putc>:
40000607:	55                   	push   %ebp
40000608:	89 e5                	mov    %esp,%ebp
4000060a:	83 ec 18             	sub    $0x18,%esp
4000060d:	8b 45 08             	mov    0x8(%ebp),%eax
40000610:	88 45 f4             	mov    %al,-0xc(%ebp)
40000613:	0f be 45 f4          	movsbl -0xc(%ebp),%eax
40000617:	83 ec 08             	sub    $0x8,%esp
4000061a:	ff 75 0c             	pushl  0xc(%ebp)
4000061d:	50                   	push   %eax
4000061e:	e8 05 00 00 00       	call   40000628 <fputc>
40000623:	83 c4 10             	add    $0x10,%esp
40000626:	c9                   	leave  
40000627:	c3                   	ret    

40000628 <fputc>:
40000628:	55                   	push   %ebp
40000629:	89 e5                	mov    %esp,%ebp
4000062b:	83 ec 18             	sub    $0x18,%esp
4000062e:	8b 45 08             	mov    0x8(%ebp),%eax
40000631:	88 45 f4             	mov    %al,-0xc(%ebp)
40000634:	83 ec 0c             	sub    $0xc,%esp
40000637:	ff 75 0c             	pushl  0xc(%ebp)
4000063a:	e8 d9 fd ff ff       	call   40000418 <resolveHandle>
4000063f:	83 c4 10             	add    $0x10,%esp
40000642:	89 45 0c             	mov    %eax,0xc(%ebp)
40000645:	83 7d 0c 00          	cmpl   $0x0,0xc(%ebp)
40000649:	74 16                	je     40000661 <fputc+0x39>
4000064b:	83 ec 04             	sub    $0x4,%esp
4000064e:	6a 01                	push   $0x1
40000650:	8d 45 f4             	lea    -0xc(%ebp),%eax
40000653:	50                   	push   %eax
40000654:	ff 75 0c             	pushl  0xc(%ebp)
40000657:	e8 8a fc ff ff       	call   400002e6 <fwrite>
4000065c:	83 c4 10             	add    $0x10,%esp
4000065f:	eb 12                	jmp    40000673 <fputc+0x4b>
40000661:	8a 45 f4             	mov    -0xc(%ebp),%al
40000664:	0f be c0             	movsbl %al,%eax
40000667:	83 ec 0c             	sub    $0xc,%esp
4000066a:	50                   	push   %eax
4000066b:	e8 2d ff ff ff       	call   4000059d <kputc>
40000670:	83 c4 10             	add    $0x10,%esp
40000673:	c9                   	leave  
40000674:	c3                   	ret    

40000675 <kputs>:
40000675:	55                   	push   %ebp
40000676:	89 e5                	mov    %esp,%ebp
40000678:	83 ec 28             	sub    $0x28,%esp
4000067b:	8b 45 08             	mov    0x8(%ebp),%eax
4000067e:	c7 45 e0 ca 00 00 00 	movl   $0xca,-0x20(%ebp)
40000685:	89 45 e4             	mov    %eax,-0x1c(%ebp)
40000688:	c7 45 e8 00 00 00 00 	movl   $0x0,-0x18(%ebp)
4000068f:	c7 45 ec 00 00 00 00 	movl   $0x0,-0x14(%ebp)
40000696:	c7 45 f0 00 00 00 00 	movl   $0x0,-0x10(%ebp)
4000069d:	c7 45 f4 00 00 00 00 	movl   $0x0,-0xc(%ebp)
400006a4:	83 ec 0c             	sub    $0xc,%esp
400006a7:	8d 45 e0             	lea    -0x20(%ebp),%eax
400006aa:	50                   	push   %eax
400006ab:	e8 14 0b 00 00       	call   400011c4 <syscall>
400006b0:	83 c4 10             	add    $0x10,%esp
400006b3:	8b 45 e0             	mov    -0x20(%ebp),%eax
400006b6:	c9                   	leave  
400006b7:	c3                   	ret    

400006b8 <puts>:
400006b8:	55                   	push   %ebp
400006b9:	89 e5                	mov    %esp,%ebp
400006bb:	83 ec 08             	sub    $0x8,%esp
400006be:	83 ec 08             	sub    $0x8,%esp
400006c1:	6a 00                	push   $0x0
400006c3:	ff 75 08             	pushl  0x8(%ebp)
400006c6:	e8 05 00 00 00       	call   400006d0 <fputs>
400006cb:	83 c4 10             	add    $0x10,%esp
400006ce:	c9                   	leave  
400006cf:	c3                   	ret    

400006d0 <fputs>:
400006d0:	55                   	push   %ebp
400006d1:	89 e5                	mov    %esp,%ebp
400006d3:	83 ec 08             	sub    $0x8,%esp
400006d6:	83 ec 0c             	sub    $0xc,%esp
400006d9:	ff 75 0c             	pushl  0xc(%ebp)
400006dc:	e8 37 fd ff ff       	call   40000418 <resolveHandle>
400006e1:	83 c4 10             	add    $0x10,%esp
400006e4:	89 45 0c             	mov    %eax,0xc(%ebp)
400006e7:	83 7d 0c 00          	cmpl   $0x0,0xc(%ebp)
400006eb:	74 22                	je     4000070f <fputs+0x3f>
400006ed:	83 ec 0c             	sub    $0xc,%esp
400006f0:	ff 75 08             	pushl  0x8(%ebp)
400006f3:	e8 7d 03 00 00       	call   40000a75 <strlen>
400006f8:	83 c4 10             	add    $0x10,%esp
400006fb:	83 ec 04             	sub    $0x4,%esp
400006fe:	50                   	push   %eax
400006ff:	ff 75 08             	pushl  0x8(%ebp)
40000702:	ff 75 0c             	pushl  0xc(%ebp)
40000705:	e8 dc fb ff ff       	call   400002e6 <fwrite>
4000070a:	83 c4 10             	add    $0x10,%esp
4000070d:	eb 0e                	jmp    4000071d <fputs+0x4d>
4000070f:	83 ec 0c             	sub    $0xc,%esp
40000712:	ff 75 08             	pushl  0x8(%ebp)
40000715:	e8 5b ff ff ff       	call   40000675 <kputs>
4000071a:	83 c4 10             	add    $0x10,%esp
4000071d:	c9                   	leave  
4000071e:	c3                   	ret    

4000071f <putn>:
4000071f:	55                   	push   %ebp
40000720:	89 e5                	mov    %esp,%ebp
40000722:	83 ec 58             	sub    $0x58,%esp
40000725:	c7 45 ec 9c 20 00 40 	movl   $0x4000209c,-0x14(%ebp)
4000072c:	c7 45 f4 00 00 00 00 	movl   $0x0,-0xc(%ebp)
40000733:	83 7d 0c 24          	cmpl   $0x24,0xc(%ebp)
40000737:	7e 07                	jle    40000740 <putn+0x21>
40000739:	b8 00 00 00 00       	mov    $0x0,%eax
4000073e:	eb 59                	jmp    40000799 <putn+0x7a>
40000740:	8d 45 ab             	lea    -0x55(%ebp),%eax
40000743:	83 c0 40             	add    $0x40,%eax
40000746:	89 45 f0             	mov    %eax,-0x10(%ebp)
40000749:	8b 45 f0             	mov    -0x10(%ebp),%eax
4000074c:	c6 00 00             	movb   $0x0,(%eax)
4000074f:	ff 45 f4             	incl   -0xc(%ebp)
40000752:	ff 4d f0             	decl   -0x10(%ebp)
40000755:	8b 55 0c             	mov    0xc(%ebp),%edx
40000758:	8b 45 08             	mov    0x8(%ebp),%eax
4000075b:	89 d1                	mov    %edx,%ecx
4000075d:	ba 00 00 00 00       	mov    $0x0,%edx
40000762:	f7 f1                	div    %ecx
40000764:	89 d0                	mov    %edx,%eax
40000766:	03 45 ec             	add    -0x14(%ebp),%eax
40000769:	8a 10                	mov    (%eax),%dl
4000076b:	8b 45 f0             	mov    -0x10(%ebp),%eax
4000076e:	88 10                	mov    %dl,(%eax)
40000770:	8b 55 0c             	mov    0xc(%ebp),%edx
40000773:	8b 45 08             	mov    0x8(%ebp),%eax
40000776:	89 d1                	mov    %edx,%ecx
40000778:	ba 00 00 00 00       	mov    $0x0,%edx
4000077d:	f7 f1                	div    %ecx
4000077f:	89 45 08             	mov    %eax,0x8(%ebp)
40000782:	83 7d 08 00          	cmpl   $0x0,0x8(%ebp)
40000786:	75 c7                	jne    4000074f <putn+0x30>
40000788:	83 ec 0c             	sub    $0xc,%esp
4000078b:	ff 75 f0             	pushl  -0x10(%ebp)
4000078e:	e8 25 ff ff ff       	call   400006b8 <puts>
40000793:	83 c4 10             	add    $0x10,%esp
40000796:	8b 45 f4             	mov    -0xc(%ebp),%eax
40000799:	c9                   	leave  
4000079a:	c3                   	ret    

4000079b <printf>:
4000079b:	55                   	push   %ebp
4000079c:	89 e5                	mov    %esp,%ebp
4000079e:	83 ec 28             	sub    $0x28,%esp
400007a1:	c7 45 f4 00 00 00 00 	movl   $0x0,-0xc(%ebp)
400007a8:	8d 45 0c             	lea    0xc(%ebp),%eax
400007ab:	89 45 e4             	mov    %eax,-0x1c(%ebp)
400007ae:	e9 4d 01 00 00       	jmp    40000900 <printf+0x165>
400007b3:	8b 45 08             	mov    0x8(%ebp),%eax
400007b6:	8a 00                	mov    (%eax),%al
400007b8:	3c 25                	cmp    $0x25,%al
400007ba:	0f 85 26 01 00 00    	jne    400008e6 <printf+0x14b>
400007c0:	ff 45 08             	incl   0x8(%ebp)
400007c3:	8b 45 08             	mov    0x8(%ebp),%eax
400007c6:	8a 00                	mov    (%eax),%al
400007c8:	0f be c0             	movsbl %al,%eax
400007cb:	83 f8 70             	cmp    $0x70,%eax
400007ce:	0f 84 90 00 00 00    	je     40000864 <printf+0xc9>
400007d4:	83 f8 70             	cmp    $0x70,%eax
400007d7:	7f 2e                	jg     40000807 <printf+0x6c>
400007d9:	83 f8 63             	cmp    $0x63,%eax
400007dc:	0f 84 a5 00 00 00    	je     40000887 <printf+0xec>
400007e2:	83 f8 63             	cmp    $0x63,%eax
400007e5:	7f 16                	jg     400007fd <printf+0x62>
400007e7:	85 c0                	test   %eax,%eax
400007e9:	0f 84 20 01 00 00    	je     4000090f <printf+0x174>
400007ef:	83 f8 25             	cmp    $0x25,%eax
400007f2:	0f 84 b2 00 00 00    	je     400008aa <printf+0x10f>
400007f8:	e9 c0 00 00 00       	jmp    400008bd <printf+0x122>
400007fd:	83 f8 64             	cmp    $0x64,%eax
40000800:	74 3c                	je     4000083e <printf+0xa3>
40000802:	e9 b6 00 00 00       	jmp    400008bd <printf+0x122>
40000807:	83 f8 75             	cmp    $0x75,%eax
4000080a:	74 32                	je     4000083e <printf+0xa3>
4000080c:	83 f8 78             	cmp    $0x78,%eax
4000080f:	74 53                	je     40000864 <printf+0xc9>
40000811:	83 f8 73             	cmp    $0x73,%eax
40000814:	0f 85 a3 00 00 00    	jne    400008bd <printf+0x122>
4000081a:	8b 45 e4             	mov    -0x1c(%ebp),%eax
4000081d:	8d 50 04             	lea    0x4(%eax),%edx
40000820:	89 55 e4             	mov    %edx,-0x1c(%ebp)
40000823:	8b 00                	mov    (%eax),%eax
40000825:	89 45 e8             	mov    %eax,-0x18(%ebp)
40000828:	83 ec 0c             	sub    $0xc,%esp
4000082b:	ff 75 e8             	pushl  -0x18(%ebp)
4000082e:	e8 85 fe ff ff       	call   400006b8 <puts>
40000833:	83 c4 10             	add    $0x10,%esp
40000836:	01 45 f4             	add    %eax,-0xc(%ebp)
40000839:	e9 bf 00 00 00       	jmp    400008fd <printf+0x162>
4000083e:	8b 45 e4             	mov    -0x1c(%ebp),%eax
40000841:	8d 50 04             	lea    0x4(%eax),%edx
40000844:	89 55 e4             	mov    %edx,-0x1c(%ebp)
40000847:	8b 00                	mov    (%eax),%eax
40000849:	89 45 ec             	mov    %eax,-0x14(%ebp)
4000084c:	83 ec 08             	sub    $0x8,%esp
4000084f:	6a 0a                	push   $0xa
40000851:	ff 75 ec             	pushl  -0x14(%ebp)
40000854:	e8 c6 fe ff ff       	call   4000071f <putn>
40000859:	83 c4 10             	add    $0x10,%esp
4000085c:	01 45 f4             	add    %eax,-0xc(%ebp)
4000085f:	e9 99 00 00 00       	jmp    400008fd <printf+0x162>
40000864:	8b 45 e4             	mov    -0x1c(%ebp),%eax
40000867:	8d 50 04             	lea    0x4(%eax),%edx
4000086a:	89 55 e4             	mov    %edx,-0x1c(%ebp)
4000086d:	8b 00                	mov    (%eax),%eax
4000086f:	89 45 ec             	mov    %eax,-0x14(%ebp)
40000872:	83 ec 08             	sub    $0x8,%esp
40000875:	6a 10                	push   $0x10
40000877:	ff 75 ec             	pushl  -0x14(%ebp)
4000087a:	e8 a0 fe ff ff       	call   4000071f <putn>
4000087f:	83 c4 10             	add    $0x10,%esp
40000882:	01 45 f4             	add    %eax,-0xc(%ebp)
40000885:	eb 76                	jmp    400008fd <printf+0x162>
40000887:	8b 45 e4             	mov    -0x1c(%ebp),%eax
4000088a:	8d 50 04             	lea    0x4(%eax),%edx
4000088d:	89 55 e4             	mov    %edx,-0x1c(%ebp)
40000890:	8b 00                	mov    (%eax),%eax
40000892:	88 45 f3             	mov    %al,-0xd(%ebp)
40000895:	0f be 45 f3          	movsbl -0xd(%ebp),%eax
40000899:	83 ec 0c             	sub    $0xc,%esp
4000089c:	50                   	push   %eax
4000089d:	e8 45 fd ff ff       	call   400005e7 <putchar>
400008a2:	83 c4 10             	add    $0x10,%esp
400008a5:	01 45 f4             	add    %eax,-0xc(%ebp)
400008a8:	eb 53                	jmp    400008fd <printf+0x162>
400008aa:	83 ec 0c             	sub    $0xc,%esp
400008ad:	6a 25                	push   $0x25
400008af:	e8 33 fd ff ff       	call   400005e7 <putchar>
400008b4:	83 c4 10             	add    $0x10,%esp
400008b7:	01 45 f4             	add    %eax,-0xc(%ebp)
400008ba:	90                   	nop    
400008bb:	eb 40                	jmp    400008fd <printf+0x162>
400008bd:	83 ec 0c             	sub    $0xc,%esp
400008c0:	6a 25                	push   $0x25
400008c2:	e8 20 fd ff ff       	call   400005e7 <putchar>
400008c7:	83 c4 10             	add    $0x10,%esp
400008ca:	01 45 f4             	add    %eax,-0xc(%ebp)
400008cd:	8b 45 08             	mov    0x8(%ebp),%eax
400008d0:	8a 00                	mov    (%eax),%al
400008d2:	0f be c0             	movsbl %al,%eax
400008d5:	83 ec 0c             	sub    $0xc,%esp
400008d8:	50                   	push   %eax
400008d9:	e8 09 fd ff ff       	call   400005e7 <putchar>
400008de:	83 c4 10             	add    $0x10,%esp
400008e1:	01 45 f4             	add    %eax,-0xc(%ebp)
400008e4:	eb 17                	jmp    400008fd <printf+0x162>
400008e6:	8b 45 08             	mov    0x8(%ebp),%eax
400008e9:	8a 00                	mov    (%eax),%al
400008eb:	0f be c0             	movsbl %al,%eax
400008ee:	83 ec 0c             	sub    $0xc,%esp
400008f1:	50                   	push   %eax
400008f2:	e8 f0 fc ff ff       	call   400005e7 <putchar>
400008f7:	83 c4 10             	add    $0x10,%esp
400008fa:	01 45 f4             	add    %eax,-0xc(%ebp)
400008fd:	ff 45 08             	incl   0x8(%ebp)
40000900:	8b 45 08             	mov    0x8(%ebp),%eax
40000903:	8a 00                	mov    (%eax),%al
40000905:	84 c0                	test   %al,%al
40000907:	0f 85 a6 fe ff ff    	jne    400007b3 <printf+0x18>
4000090d:	eb 01                	jmp    40000910 <printf+0x175>
4000090f:	90                   	nop    
40000910:	8b 45 f4             	mov    -0xc(%ebp),%eax
40000913:	c9                   	leave  
40000914:	c3                   	ret    
40000915:	00 00                	add    %al,(%eax)
	...

40000918 <memset>:
#include "stdint.h"
#include "stdio.h"
#include "process.h"
 
40000918:	55                   	push   %ebp
40000919:	89 e5                	mov    %esp,%ebp
4000091b:	83 ec 10             	sub    $0x10,%esp
int main(int argc, char* args[])
4000091e:	8b 45 08             	mov    0x8(%ebp),%eax
40000921:	89 45 fc             	mov    %eax,-0x4(%ebp)
{
    if(argc < 2) {
40000924:	eb 0d                	jmp    40000933 <memset+0x1b>
        //printf("cat: No file specified\n");
40000926:	8b 45 0c             	mov    0xc(%ebp),%eax
40000929:	88 c2                	mov    %al,%dl
4000092b:	8b 45 fc             	mov    -0x4(%ebp),%eax
4000092e:	88 10                	mov    %dl,(%eax)
40000930:	ff 45 fc             	incl   -0x4(%ebp)
#include "stdio.h"
#include "process.h"
 
int main(int argc, char* args[])
{
    if(argc < 2) {
40000933:	83 7d 10 00          	cmpl   $0x0,0x10(%ebp)
40000937:	0f 95 c0             	setne  %al
4000093a:	ff 4d 10             	decl   0x10(%ebp)
4000093d:	84 c0                	test   %al,%al
4000093f:	75 e5                	jne    40000926 <memset+0xe>
        //printf("cat: No file specified\n");

        HANDLE in = fopen("/dev/urandom", FM_READ);

40000941:	8b 45 08             	mov    0x8(%ebp),%eax
        char c;
40000944:	c9                   	leave  
40000945:	c3                   	ret    

40000946 <memcpy>:

        while(1) {
40000946:	55                   	push   %ebp
40000947:	89 e5                	mov    %esp,%ebp
40000949:	83 ec 10             	sub    $0x10,%esp
            fread(in, &c, sizeof(char));
4000094c:	8b 45 08             	mov    0x8(%ebp),%eax
4000094f:	89 45 f8             	mov    %eax,-0x8(%ebp)
            putchar(c);
40000952:	8b 45 0c             	mov    0xc(%ebp),%eax
40000955:	89 45 fc             	mov    %eax,-0x4(%ebp)
        }
    }
40000958:	83 7d 10 00          	cmpl   $0x0,0x10(%ebp)
4000095c:	75 19                	jne    40000977 <memcpy+0x31>
4000095e:	b8 00 00 00 00       	mov    $0x0,%eax
40000963:	eb 24                	jmp    40000989 <memcpy+0x43>
    return 0;
}
40000965:	8b 45 fc             	mov    -0x4(%ebp),%eax
40000968:	8a 10                	mov    (%eax),%dl
4000096a:	8b 45 f8             	mov    -0x8(%ebp),%eax
4000096d:	88 10                	mov    %dl,(%eax)
4000096f:	ff 45 f8             	incl   -0x8(%ebp)
40000972:	ff 45 fc             	incl   -0x4(%ebp)
40000975:	eb 01                	jmp    40000978 <memcpy+0x32>
            fread(in, &c, sizeof(char));
            putchar(c);
        }
    }
    return 0;
}
40000977:	90                   	nop    
40000978:	83 7d 10 00          	cmpl   $0x0,0x10(%ebp)
4000097c:	0f 95 c0             	setne  %al
4000097f:	ff 4d 10             	decl   0x10(%ebp)
40000982:	84 c0                	test   %al,%al
40000984:	75 df                	jne    40000965 <memcpy+0x1f>
40000986:	8b 45 08             	mov    0x8(%ebp),%eax
40000989:	c9                   	leave  
4000098a:	c3                   	ret    

4000098b <memcmp>:
4000098b:	55                   	push   %ebp
4000098c:	89 e5                	mov    %esp,%ebp
4000098e:	83 ec 10             	sub    $0x10,%esp
40000991:	83 7d 08 00          	cmpl   $0x0,0x8(%ebp)
40000995:	75 0a                	jne    400009a1 <memcmp+0x16>
40000997:	b8 ff ff ff ff       	mov    $0xffffffff,%eax
4000099c:	e9 83 00 00 00       	jmp    40000a24 <memcmp+0x99>
400009a1:	83 7d 0c 00          	cmpl   $0x0,0xc(%ebp)
400009a5:	75 07                	jne    400009ae <memcmp+0x23>
400009a7:	b8 01 00 00 00       	mov    $0x1,%eax
400009ac:	eb 76                	jmp    40000a24 <memcmp+0x99>
400009ae:	83 7d 10 00          	cmpl   $0x0,0x10(%ebp)
400009b2:	75 07                	jne    400009bb <memcmp+0x30>
400009b4:	b8 00 00 00 00       	mov    $0x0,%eax
400009b9:	eb 69                	jmp    40000a24 <memcmp+0x99>
400009bb:	8b 45 08             	mov    0x8(%ebp),%eax
400009be:	89 45 f4             	mov    %eax,-0xc(%ebp)
400009c1:	8b 45 0c             	mov    0xc(%ebp),%eax
400009c4:	89 45 f8             	mov    %eax,-0x8(%ebp)
400009c7:	c7 45 fc 00 00 00 00 	movl   $0x0,-0x4(%ebp)
400009ce:	eb 47                	jmp    40000a17 <memcmp+0x8c>
400009d0:	8b 45 fc             	mov    -0x4(%ebp),%eax
400009d3:	8b 55 f4             	mov    -0xc(%ebp),%edx
400009d6:	8d 04 02             	lea    (%edx,%eax,1),%eax
400009d9:	8a 10                	mov    (%eax),%dl
400009db:	8b 45 fc             	mov    -0x4(%ebp),%eax
400009de:	8b 4d f8             	mov    -0x8(%ebp),%ecx
400009e1:	8d 04 01             	lea    (%ecx,%eax,1),%eax
400009e4:	8a 00                	mov    (%eax),%al
400009e6:	38 c2                	cmp    %al,%dl
400009e8:	74 2a                	je     40000a14 <memcmp+0x89>
400009ea:	8b 45 fc             	mov    -0x4(%ebp),%eax
400009ed:	8b 55 f4             	mov    -0xc(%ebp),%edx
400009f0:	8d 04 02             	lea    (%edx,%eax,1),%eax
400009f3:	8a 00                	mov    (%eax),%al
400009f5:	ba 00 00 00 00       	mov    $0x0,%edx
400009fa:	88 c2                	mov    %al,%dl
400009fc:	8b 45 fc             	mov    -0x4(%ebp),%eax
400009ff:	8b 4d f8             	mov    -0x8(%ebp),%ecx
40000a02:	8d 04 01             	lea    (%ecx,%eax,1),%eax
40000a05:	8a 00                	mov    (%eax),%al
40000a07:	25 ff 00 00 00       	and    $0xff,%eax
40000a0c:	89 d1                	mov    %edx,%ecx
40000a0e:	29 c1                	sub    %eax,%ecx
40000a10:	89 c8                	mov    %ecx,%eax
40000a12:	eb 10                	jmp    40000a24 <memcmp+0x99>
40000a14:	ff 45 fc             	incl   -0x4(%ebp)
40000a17:	8b 45 fc             	mov    -0x4(%ebp),%eax
40000a1a:	3b 45 10             	cmp    0x10(%ebp),%eax
40000a1d:	72 b1                	jb     400009d0 <memcmp+0x45>
40000a1f:	b8 00 00 00 00       	mov    $0x0,%eax
40000a24:	c9                   	leave  
40000a25:	c3                   	ret    

40000a26 <strcmp>:
40000a26:	55                   	push   %ebp
40000a27:	89 e5                	mov    %esp,%ebp
40000a29:	83 ec 18             	sub    $0x18,%esp
40000a2c:	83 ec 0c             	sub    $0xc,%esp
40000a2f:	ff 75 08             	pushl  0x8(%ebp)
40000a32:	e8 3e 00 00 00       	call   40000a75 <strlen>
40000a37:	83 c4 10             	add    $0x10,%esp
40000a3a:	89 45 f0             	mov    %eax,-0x10(%ebp)
40000a3d:	83 ec 0c             	sub    $0xc,%esp
40000a40:	ff 75 0c             	pushl  0xc(%ebp)
40000a43:	e8 2d 00 00 00       	call   40000a75 <strlen>
40000a48:	83 c4 10             	add    $0x10,%esp
40000a4b:	89 45 f4             	mov    %eax,-0xc(%ebp)
40000a4e:	8b 55 f0             	mov    -0x10(%ebp),%edx
40000a51:	8b 45 f4             	mov    -0xc(%ebp),%eax
40000a54:	39 d0                	cmp    %edx,%eax
40000a56:	7e 02                	jle    40000a5a <strcmp+0x34>
40000a58:	89 d0                	mov    %edx,%eax
40000a5a:	89 45 f0             	mov    %eax,-0x10(%ebp)
40000a5d:	8b 45 f0             	mov    -0x10(%ebp),%eax
40000a60:	40                   	inc    %eax
40000a61:	83 ec 04             	sub    $0x4,%esp
40000a64:	50                   	push   %eax
40000a65:	ff 75 0c             	pushl  0xc(%ebp)
40000a68:	ff 75 08             	pushl  0x8(%ebp)
40000a6b:	e8 1b ff ff ff       	call   4000098b <memcmp>
40000a70:	83 c4 10             	add    $0x10,%esp
40000a73:	c9                   	leave  
40000a74:	c3                   	ret    

40000a75 <strlen>:
40000a75:	55                   	push   %ebp
40000a76:	89 e5                	mov    %esp,%ebp
40000a78:	83 ec 10             	sub    $0x10,%esp
40000a7b:	83 7d 08 00          	cmpl   $0x0,0x8(%ebp)
40000a7f:	75 07                	jne    40000a88 <strlen+0x13>
40000a81:	b8 00 00 00 00       	mov    $0x0,%eax
40000a86:	eb 1b                	jmp    40000aa3 <strlen+0x2e>
40000a88:	c7 45 fc 00 00 00 00 	movl   $0x0,-0x4(%ebp)
40000a8f:	eb 03                	jmp    40000a94 <strlen+0x1f>
40000a91:	ff 45 fc             	incl   -0x4(%ebp)
40000a94:	8b 45 fc             	mov    -0x4(%ebp),%eax
40000a97:	03 45 08             	add    0x8(%ebp),%eax
40000a9a:	8a 00                	mov    (%eax),%al
40000a9c:	84 c0                	test   %al,%al
40000a9e:	75 f1                	jne    40000a91 <strlen+0x1c>
40000aa0:	8b 45 fc             	mov    -0x4(%ebp),%eax
40000aa3:	c9                   	leave  
40000aa4:	c3                   	ret    

40000aa5 <strcpy>:
40000aa5:	55                   	push   %ebp
40000aa6:	89 e5                	mov    %esp,%ebp
40000aa8:	ff 75 0c             	pushl  0xc(%ebp)
40000aab:	e8 c5 ff ff ff       	call   40000a75 <strlen>
40000ab0:	83 c4 04             	add    $0x4,%esp
40000ab3:	40                   	inc    %eax
40000ab4:	50                   	push   %eax
40000ab5:	ff 75 0c             	pushl  0xc(%ebp)
40000ab8:	ff 75 08             	pushl  0x8(%ebp)
40000abb:	e8 86 fe ff ff       	call   40000946 <memcpy>
40000ac0:	83 c4 0c             	add    $0xc,%esp
40000ac3:	8b 45 08             	mov    0x8(%ebp),%eax
40000ac6:	c9                   	leave  
40000ac7:	c3                   	ret    

40000ac8 <strclone>:
40000ac8:	55                   	push   %ebp
40000ac9:	89 e5                	mov    %esp,%ebp
40000acb:	83 ec 18             	sub    $0x18,%esp
40000ace:	ff 75 08             	pushl  0x8(%ebp)
40000ad1:	e8 9f ff ff ff       	call   40000a75 <strlen>
40000ad6:	83 c4 04             	add    $0x4,%esp
40000ad9:	40                   	inc    %eax
40000ada:	83 ec 0c             	sub    $0xc,%esp
40000add:	50                   	push   %eax
40000ade:	e8 92 03 00 00       	call   40000e75 <malloc>
40000ae3:	83 c4 10             	add    $0x10,%esp
40000ae6:	89 45 f4             	mov    %eax,-0xc(%ebp)
40000ae9:	83 ec 08             	sub    $0x8,%esp
40000aec:	ff 75 08             	pushl  0x8(%ebp)
40000aef:	ff 75 f4             	pushl  -0xc(%ebp)
40000af2:	e8 ae ff ff ff       	call   40000aa5 <strcpy>
40000af7:	83 c4 10             	add    $0x10,%esp
40000afa:	8b 45 f4             	mov    -0xc(%ebp),%eax
40000afd:	c9                   	leave  
40000afe:	c3                   	ret    

40000aff <strtok>:
40000aff:	55                   	push   %ebp
40000b00:	89 e5                	mov    %esp,%ebp
40000b02:	83 ec 08             	sub    $0x8,%esp
40000b05:	83 7d 08 00          	cmpl   $0x0,0x8(%ebp)
40000b09:	74 43                	je     40000b4e <strtok+0x4f>
40000b0b:	a1 04 30 00 40       	mov    0x40003004,%eax
40000b10:	85 c0                	test   %eax,%eax
40000b12:	74 11                	je     40000b25 <strtok+0x26>
40000b14:	a1 04 30 00 40       	mov    0x40003004,%eax
40000b19:	83 ec 0c             	sub    $0xc,%esp
40000b1c:	50                   	push   %eax
40000b1d:	e8 96 05 00 00       	call   400010b8 <free>
40000b22:	83 c4 10             	add    $0x10,%esp
40000b25:	83 ec 0c             	sub    $0xc,%esp
40000b28:	ff 75 08             	pushl  0x8(%ebp)
40000b2b:	e8 98 ff ff ff       	call   40000ac8 <strclone>
40000b30:	83 c4 10             	add    $0x10,%esp
40000b33:	a3 04 30 00 40       	mov    %eax,0x40003004
40000b38:	a1 04 30 00 40       	mov    0x40003004,%eax
40000b3d:	83 ec 08             	sub    $0x8,%esp
40000b40:	ff 75 0c             	pushl  0xc(%ebp)
40000b43:	50                   	push   %eax
40000b44:	e8 17 00 00 00       	call   40000b60 <strtoknc>
40000b49:	83 c4 10             	add    $0x10,%esp
40000b4c:	eb 10                	jmp    40000b5e <strtok+0x5f>
40000b4e:	83 ec 08             	sub    $0x8,%esp
40000b51:	ff 75 0c             	pushl  0xc(%ebp)
40000b54:	6a 00                	push   $0x0
40000b56:	e8 05 00 00 00       	call   40000b60 <strtoknc>
40000b5b:	83 c4 10             	add    $0x10,%esp
40000b5e:	c9                   	leave  
40000b5f:	c3                   	ret    

40000b60 <strtoknc>:
40000b60:	55                   	push   %ebp
40000b61:	89 e5                	mov    %esp,%ebp
40000b63:	83 ec 10             	sub    $0x10,%esp
40000b66:	c7 45 f4 00 00 00 00 	movl   $0x0,-0xc(%ebp)
40000b6d:	ff 75 0c             	pushl  0xc(%ebp)
40000b70:	e8 00 ff ff ff       	call   40000a75 <strlen>
40000b75:	83 c4 04             	add    $0x4,%esp
40000b78:	89 45 f8             	mov    %eax,-0x8(%ebp)
40000b7b:	83 7d f8 00          	cmpl   $0x0,-0x8(%ebp)
40000b7f:	75 0a                	jne    40000b8b <strtoknc+0x2b>
40000b81:	b8 00 00 00 00       	mov    $0x0,%eax
40000b86:	e9 e0 00 00 00       	jmp    40000c6b <strtoknc+0x10b>
40000b8b:	83 7d 08 00          	cmpl   $0x0,0x8(%ebp)
40000b8f:	75 13                	jne    40000ba4 <strtoknc+0x44>
40000b91:	a1 00 30 00 40       	mov    0x40003000,%eax
40000b96:	85 c0                	test   %eax,%eax
40000b98:	75 0a                	jne    40000ba4 <strtoknc+0x44>
40000b9a:	b8 00 00 00 00       	mov    $0x0,%eax
40000b9f:	e9 c7 00 00 00       	jmp    40000c6b <strtoknc+0x10b>
40000ba4:	83 7d 08 00          	cmpl   $0x0,0x8(%ebp)
40000ba8:	74 08                	je     40000bb2 <strtoknc+0x52>
40000baa:	8b 45 08             	mov    0x8(%ebp),%eax
40000bad:	a3 00 30 00 40       	mov    %eax,0x40003000
40000bb2:	a1 00 30 00 40       	mov    0x40003000,%eax
40000bb7:	89 45 fc             	mov    %eax,-0x4(%ebp)
40000bba:	eb 01                	jmp    40000bbd <strtoknc+0x5d>
40000bbc:	90                   	nop    
40000bbd:	c7 45 f4 00 00 00 00 	movl   $0x0,-0xc(%ebp)
40000bc4:	eb 19                	jmp    40000bdf <strtoknc+0x7f>
40000bc6:	8b 45 fc             	mov    -0x4(%ebp),%eax
40000bc9:	8a 10                	mov    (%eax),%dl
40000bcb:	8b 45 f4             	mov    -0xc(%ebp),%eax
40000bce:	03 45 0c             	add    0xc(%ebp),%eax
40000bd1:	8a 00                	mov    (%eax),%al
40000bd3:	38 c2                	cmp    %al,%dl
40000bd5:	75 05                	jne    40000bdc <strtoknc+0x7c>
40000bd7:	ff 45 fc             	incl   -0x4(%ebp)
40000bda:	eb 0b                	jmp    40000be7 <strtoknc+0x87>
40000bdc:	ff 45 f4             	incl   -0xc(%ebp)
40000bdf:	8b 45 f4             	mov    -0xc(%ebp),%eax
40000be2:	3b 45 f8             	cmp    -0x8(%ebp),%eax
40000be5:	7c df                	jl     40000bc6 <strtoknc+0x66>
40000be7:	8b 45 f4             	mov    -0xc(%ebp),%eax
40000bea:	3b 45 f8             	cmp    -0x8(%ebp),%eax
40000bed:	75 cd                	jne    40000bbc <strtoknc+0x5c>
40000bef:	8b 45 fc             	mov    -0x4(%ebp),%eax
40000bf2:	a3 00 30 00 40       	mov    %eax,0x40003000
40000bf7:	a1 00 30 00 40       	mov    0x40003000,%eax
40000bfc:	8a 00                	mov    (%eax),%al
40000bfe:	84 c0                	test   %al,%al
40000c00:	75 57                	jne    40000c59 <strtoknc+0xf9>
40000c02:	c7 05 00 30 00 40 00 	movl   $0x0,0x40003000
40000c09:	00 00 00 
40000c0c:	a1 00 30 00 40       	mov    0x40003000,%eax
40000c11:	eb 58                	jmp    40000c6b <strtoknc+0x10b>
40000c13:	c7 45 f4 00 00 00 00 	movl   $0x0,-0xc(%ebp)
40000c1a:	eb 20                	jmp    40000c3c <strtoknc+0xdc>
40000c1c:	a1 00 30 00 40       	mov    0x40003000,%eax
40000c21:	8a 10                	mov    (%eax),%dl
40000c23:	8b 45 f4             	mov    -0xc(%ebp),%eax
40000c26:	03 45 0c             	add    0xc(%ebp),%eax
40000c29:	8a 00                	mov    (%eax),%al
40000c2b:	38 c2                	cmp    %al,%dl
40000c2d:	75 0a                	jne    40000c39 <strtoknc+0xd9>
40000c2f:	a1 00 30 00 40       	mov    0x40003000,%eax
40000c34:	c6 00 00             	movb   $0x0,(%eax)
40000c37:	eb 0b                	jmp    40000c44 <strtoknc+0xe4>
40000c39:	ff 45 f4             	incl   -0xc(%ebp)
40000c3c:	8b 45 f4             	mov    -0xc(%ebp),%eax
40000c3f:	3b 45 f8             	cmp    -0x8(%ebp),%eax
40000c42:	7c d8                	jl     40000c1c <strtoknc+0xbc>
40000c44:	a1 00 30 00 40       	mov    0x40003000,%eax
40000c49:	40                   	inc    %eax
40000c4a:	a3 00 30 00 40       	mov    %eax,0x40003000
40000c4f:	8b 45 f4             	mov    -0xc(%ebp),%eax
40000c52:	3b 45 f8             	cmp    -0x8(%ebp),%eax
40000c55:	7c 10                	jl     40000c67 <strtoknc+0x107>
40000c57:	eb 01                	jmp    40000c5a <strtoknc+0xfa>
40000c59:	90                   	nop    
40000c5a:	a1 00 30 00 40       	mov    0x40003000,%eax
40000c5f:	8a 00                	mov    (%eax),%al
40000c61:	84 c0                	test   %al,%al
40000c63:	75 ae                	jne    40000c13 <strtoknc+0xb3>
40000c65:	eb 01                	jmp    40000c68 <strtoknc+0x108>
40000c67:	90                   	nop    
40000c68:	8b 45 fc             	mov    -0x4(%ebp),%eax
40000c6b:	c9                   	leave  
40000c6c:	c3                   	ret    
40000c6d:	00 00                	add    %al,(%eax)
	...

40000c70 <remove_from_list>:
#include "process.h"
 
int main(int argc, char* args[])
{
    if(argc < 2) {
        //printf("cat: No file specified\n");
40000c70:	55                   	push   %ebp
40000c71:	89 e5                	mov    %esp,%ebp
40000c73:	83 ec 10             	sub    $0x10,%esp

40000c76:	c7 45 f8 00 00 00 00 	movl   $0x0,-0x8(%ebp)
        HANDLE in = fopen("/dev/urandom", FM_READ);
40000c7d:	8b 45 08             	mov    0x8(%ebp),%eax
40000c80:	8b 00                	mov    (%eax),%eax
40000c82:	89 45 fc             	mov    %eax,-0x4(%ebp)

        char c;
40000c85:	eb 38                	jmp    40000cbf <remove_from_list+0x4f>

40000c87:	8b 45 fc             	mov    -0x4(%ebp),%eax
40000c8a:	3b 45 0c             	cmp    0xc(%ebp),%eax
40000c8d:	75 21                	jne    40000cb0 <remove_from_list+0x40>
        while(1) {
40000c8f:	83 7d f8 00          	cmpl   $0x0,-0x8(%ebp)
40000c93:	75 0d                	jne    40000ca2 <remove_from_list+0x32>
            fread(in, &c, sizeof(char));
40000c95:	8b 45 fc             	mov    -0x4(%ebp),%eax
40000c98:	8b 50 08             	mov    0x8(%eax),%edx
40000c9b:	8b 45 08             	mov    0x8(%ebp),%eax
40000c9e:	89 10                	mov    %edx,(%eax)
            putchar(c);
40000ca0:	eb 23                	jmp    40000cc5 <remove_from_list+0x55>
        }
    }
40000ca2:	8b 45 fc             	mov    -0x4(%ebp),%eax
40000ca5:	8b 50 08             	mov    0x8(%eax),%edx
40000ca8:	8b 45 f8             	mov    -0x8(%ebp),%eax
40000cab:	89 50 08             	mov    %edx,0x8(%eax)
    return 0;
40000cae:	eb 15                	jmp    40000cc5 <remove_from_list+0x55>
}
40000cb0:	8b 45 fc             	mov    -0x4(%ebp),%eax
40000cb3:	89 45 f8             	mov    %eax,-0x8(%ebp)
40000cb6:	8b 45 fc             	mov    -0x4(%ebp),%eax
40000cb9:	8b 40 08             	mov    0x8(%eax),%eax
40000cbc:	89 45 fc             	mov    %eax,-0x4(%ebp)
    if(argc < 2) {
        //printf("cat: No file specified\n");

        HANDLE in = fopen("/dev/urandom", FM_READ);

        char c;
40000cbf:	83 7d fc 00          	cmpl   $0x0,-0x4(%ebp)
40000cc3:	75 c2                	jne    40000c87 <remove_from_list+0x17>
}
40000cc5:	c9                   	leave  
40000cc6:	c3                   	ret    

40000cc7 <append_to_list>:
40000cc7:	55                   	push   %ebp
40000cc8:	89 e5                	mov    %esp,%ebp
40000cca:	8b 45 08             	mov    0x8(%ebp),%eax
40000ccd:	8b 10                	mov    (%eax),%edx
40000ccf:	8b 45 0c             	mov    0xc(%ebp),%eax
40000cd2:	89 50 08             	mov    %edx,0x8(%eax)
40000cd5:	8b 45 08             	mov    0x8(%ebp),%eax
40000cd8:	8b 55 0c             	mov    0xc(%ebp),%edx
40000cdb:	89 10                	mov    %edx,(%eax)
40000cdd:	5d                   	pop    %ebp
40000cde:	c3                   	ret    

40000cdf <pop_from_list>:
40000cdf:	55                   	push   %ebp
40000ce0:	89 e5                	mov    %esp,%ebp
40000ce2:	83 ec 10             	sub    $0x10,%esp
40000ce5:	8b 45 08             	mov    0x8(%ebp),%eax
40000ce8:	8b 00                	mov    (%eax),%eax
40000cea:	85 c0                	test   %eax,%eax
40000cec:	75 07                	jne    40000cf5 <pop_from_list+0x16>
40000cee:	b8 00 00 00 00       	mov    $0x0,%eax
40000cf3:	eb 19                	jmp    40000d0e <pop_from_list+0x2f>
40000cf5:	8b 45 08             	mov    0x8(%ebp),%eax
40000cf8:	8b 00                	mov    (%eax),%eax
40000cfa:	89 45 fc             	mov    %eax,-0x4(%ebp)
40000cfd:	ff 75 fc             	pushl  -0x4(%ebp)
40000d00:	ff 75 08             	pushl  0x8(%ebp)
40000d03:	e8 68 ff ff ff       	call   40000c70 <remove_from_list>
40000d08:	83 c4 08             	add    $0x8,%esp
40000d0b:	8b 45 fc             	mov    -0x4(%ebp),%eax
40000d0e:	c9                   	leave  
40000d0f:	c3                   	ret    

40000d10 <allocate_unused_nodes>:
40000d10:	55                   	push   %ebp
40000d11:	89 e5                	mov    %esp,%ebp
40000d13:	83 ec 18             	sub    $0x18,%esp
40000d16:	83 ec 0c             	sub    $0xc,%esp
40000d19:	6a 01                	push   $0x1
40000d1b:	e8 e0 03 00 00       	call   40001100 <vmm_alloc_cont>
40000d20:	83 c4 10             	add    $0x10,%esp
40000d23:	89 45 f0             	mov    %eax,-0x10(%ebp)
40000d26:	83 ec 04             	sub    $0x4,%esp
40000d29:	68 00 10 00 00       	push   $0x1000
40000d2e:	6a 00                	push   $0x0
40000d30:	ff 75 f0             	pushl  -0x10(%ebp)
40000d33:	e8 e0 fb ff ff       	call   40000918 <memset>
40000d38:	83 c4 10             	add    $0x10,%esp
40000d3b:	c7 45 f4 01 00 00 00 	movl   $0x1,-0xc(%ebp)
40000d42:	eb 23                	jmp    40000d67 <allocate_unused_nodes+0x57>
40000d44:	8b 55 f4             	mov    -0xc(%ebp),%edx
40000d47:	89 d0                	mov    %edx,%eax
40000d49:	01 c0                	add    %eax,%eax
40000d4b:	01 d0                	add    %edx,%eax
40000d4d:	c1 e0 02             	shl    $0x2,%eax
40000d50:	03 45 f0             	add    -0x10(%ebp),%eax
40000d53:	83 ec 08             	sub    $0x8,%esp
40000d56:	50                   	push   %eax
40000d57:	68 08 30 00 40       	push   $0x40003008
40000d5c:	e8 66 ff ff ff       	call   40000cc7 <append_to_list>
40000d61:	83 c4 10             	add    $0x10,%esp
40000d64:	ff 45 f4             	incl   -0xc(%ebp)
40000d67:	81 7d f4 54 01 00 00 	cmpl   $0x154,-0xc(%ebp)
40000d6e:	76 d4                	jbe    40000d44 <allocate_unused_nodes+0x34>
40000d70:	c9                   	leave  
40000d71:	c3                   	ret    

40000d72 <pop_unused_node>:
40000d72:	55                   	push   %ebp
40000d73:	89 e5                	mov    %esp,%ebp
40000d75:	83 ec 18             	sub    $0x18,%esp
40000d78:	68 08 30 00 40       	push   $0x40003008
40000d7d:	e8 5d ff ff ff       	call   40000cdf <pop_from_list>
40000d82:	83 c4 04             	add    $0x4,%esp
40000d85:	89 45 f4             	mov    %eax,-0xc(%ebp)
40000d88:	eb 18                	jmp    40000da2 <pop_unused_node+0x30>
40000d8a:	e8 81 ff ff ff       	call   40000d10 <allocate_unused_nodes>
40000d8f:	83 ec 0c             	sub    $0xc,%esp
40000d92:	68 08 30 00 40       	push   $0x40003008
40000d97:	e8 43 ff ff ff       	call   40000cdf <pop_from_list>
40000d9c:	83 c4 10             	add    $0x10,%esp
40000d9f:	89 45 f4             	mov    %eax,-0xc(%ebp)
40000da2:	83 7d f4 00          	cmpl   $0x0,-0xc(%ebp)
40000da6:	74 e2                	je     40000d8a <pop_unused_node+0x18>
40000da8:	8b 45 f4             	mov    -0xc(%ebp),%eax
40000dab:	c9                   	leave  
40000dac:	c3                   	ret    

40000dad <merge_into_frees>:
40000dad:	55                   	push   %ebp
40000dae:	89 e5                	mov    %esp,%ebp
40000db0:	83 ec 10             	sub    $0x10,%esp
40000db3:	ff 75 08             	pushl  0x8(%ebp)
40000db6:	68 0c 30 00 40       	push   $0x4000300c
40000dbb:	e8 b0 fe ff ff       	call   40000c70 <remove_from_list>
40000dc0:	83 c4 08             	add    $0x8,%esp
40000dc3:	c7 45 f8 00 00 00 00 	movl   $0x0,-0x8(%ebp)
40000dca:	a1 10 30 00 40       	mov    0x40003010,%eax
40000dcf:	89 45 fc             	mov    %eax,-0x4(%ebp)
40000dd2:	e9 82 00 00 00       	jmp    40000e59 <merge_into_frees+0xac>
40000dd7:	8b 45 fc             	mov    -0x4(%ebp),%eax
40000dda:	8b 50 04             	mov    0x4(%eax),%edx
40000ddd:	8b 45 fc             	mov    -0x4(%ebp),%eax
40000de0:	8b 00                	mov    (%eax),%eax
40000de2:	01 c2                	add    %eax,%edx
40000de4:	8b 45 08             	mov    0x8(%ebp),%eax
40000de7:	8b 40 04             	mov    0x4(%eax),%eax
40000dea:	39 c2                	cmp    %eax,%edx
40000dec:	75 1e                	jne    40000e0c <merge_into_frees+0x5f>
40000dee:	8b 45 fc             	mov    -0x4(%ebp),%eax
40000df1:	8b 50 04             	mov    0x4(%eax),%edx
40000df4:	8b 45 08             	mov    0x8(%ebp),%eax
40000df7:	89 50 04             	mov    %edx,0x4(%eax)
40000dfa:	ff 75 fc             	pushl  -0x4(%ebp)
40000dfd:	68 10 30 00 40       	push   $0x40003010
40000e02:	e8 69 fe ff ff       	call   40000c70 <remove_from_list>
40000e07:	83 c4 08             	add    $0x8,%esp
40000e0a:	eb b7                	jmp    40000dc3 <merge_into_frees+0x16>
40000e0c:	8b 45 fc             	mov    -0x4(%ebp),%eax
40000e0f:	8b 50 04             	mov    0x4(%eax),%edx
40000e12:	8b 45 08             	mov    0x8(%ebp),%eax
40000e15:	8b 48 04             	mov    0x4(%eax),%ecx
40000e18:	8b 45 08             	mov    0x8(%ebp),%eax
40000e1b:	8b 00                	mov    (%eax),%eax
40000e1d:	8d 04 01             	lea    (%ecx,%eax,1),%eax
40000e20:	39 c2                	cmp    %eax,%edx
40000e22:	75 26                	jne    40000e4a <merge_into_frees+0x9d>
40000e24:	8b 45 08             	mov    0x8(%ebp),%eax
40000e27:	8b 10                	mov    (%eax),%edx
40000e29:	8b 45 fc             	mov    -0x4(%ebp),%eax
40000e2c:	8b 00                	mov    (%eax),%eax
40000e2e:	01 c2                	add    %eax,%edx
40000e30:	8b 45 08             	mov    0x8(%ebp),%eax
40000e33:	89 10                	mov    %edx,(%eax)
40000e35:	ff 75 fc             	pushl  -0x4(%ebp)
40000e38:	68 10 30 00 40       	push   $0x40003010
40000e3d:	e8 2e fe ff ff       	call   40000c70 <remove_from_list>
40000e42:	83 c4 08             	add    $0x8,%esp
40000e45:	e9 79 ff ff ff       	jmp    40000dc3 <merge_into_frees+0x16>
40000e4a:	8b 45 fc             	mov    -0x4(%ebp),%eax
40000e4d:	89 45 f8             	mov    %eax,-0x8(%ebp)
40000e50:	8b 45 fc             	mov    -0x4(%ebp),%eax
40000e53:	8b 40 08             	mov    0x8(%eax),%eax
40000e56:	89 45 fc             	mov    %eax,-0x4(%ebp)
40000e59:	83 7d fc 00          	cmpl   $0x0,-0x4(%ebp)
40000e5d:	0f 85 74 ff ff ff    	jne    40000dd7 <merge_into_frees+0x2a>
40000e63:	ff 75 08             	pushl  0x8(%ebp)
40000e66:	68 10 30 00 40       	push   $0x40003010
40000e6b:	e8 57 fe ff ff       	call   40000cc7 <append_to_list>
40000e70:	83 c4 08             	add    $0x8,%esp
40000e73:	c9                   	leave  
40000e74:	c3                   	ret    

40000e75 <malloc>:
40000e75:	55                   	push   %ebp
40000e76:	89 e5                	mov    %esp,%ebp
40000e78:	83 ec 28             	sub    $0x28,%esp
40000e7b:	c7 45 d8 00 00 00 00 	movl   $0x0,-0x28(%ebp)
40000e82:	a1 10 30 00 40       	mov    0x40003010,%eax
40000e87:	89 45 dc             	mov    %eax,-0x24(%ebp)
40000e8a:	eb 19                	jmp    40000ea5 <malloc+0x30>
40000e8c:	8b 45 dc             	mov    -0x24(%ebp),%eax
40000e8f:	8b 00                	mov    (%eax),%eax
40000e91:	3b 45 08             	cmp    0x8(%ebp),%eax
40000e94:	73 17                	jae    40000ead <malloc+0x38>
40000e96:	8b 45 dc             	mov    -0x24(%ebp),%eax
40000e99:	89 45 d8             	mov    %eax,-0x28(%ebp)
40000e9c:	8b 45 dc             	mov    -0x24(%ebp),%eax
40000e9f:	8b 40 08             	mov    0x8(%eax),%eax
40000ea2:	89 45 dc             	mov    %eax,-0x24(%ebp)
40000ea5:	83 7d dc 00          	cmpl   $0x0,-0x24(%ebp)
40000ea9:	75 e1                	jne    40000e8c <malloc+0x17>
40000eab:	eb 01                	jmp    40000eae <malloc+0x39>
40000ead:	90                   	nop    
40000eae:	83 7d dc 00          	cmpl   $0x0,-0x24(%ebp)
40000eb2:	0f 85 a6 00 00 00    	jne    40000f5e <malloc+0xe9>
40000eb8:	8b 45 08             	mov    0x8(%ebp),%eax
40000ebb:	c1 e8 0c             	shr    $0xc,%eax
40000ebe:	89 45 e0             	mov    %eax,-0x20(%ebp)
40000ec1:	8b 45 08             	mov    0x8(%ebp),%eax
40000ec4:	25 ff 0f 00 00       	and    $0xfff,%eax
40000ec9:	85 c0                	test   %eax,%eax
40000ecb:	74 03                	je     40000ed0 <malloc+0x5b>
40000ecd:	ff 45 e0             	incl   -0x20(%ebp)
40000ed0:	83 ec 0c             	sub    $0xc,%esp
40000ed3:	ff 75 e0             	pushl  -0x20(%ebp)
40000ed6:	e8 25 02 00 00       	call   40001100 <vmm_alloc_cont>
40000edb:	83 c4 10             	add    $0x10,%esp
40000ede:	89 45 e4             	mov    %eax,-0x1c(%ebp)
40000ee1:	e8 8c fe ff ff       	call   40000d72 <pop_unused_node>
40000ee6:	89 45 e8             	mov    %eax,-0x18(%ebp)
40000ee9:	8b 55 e4             	mov    -0x1c(%ebp),%edx
40000eec:	8b 45 e8             	mov    -0x18(%ebp),%eax
40000eef:	89 50 04             	mov    %edx,0x4(%eax)
40000ef2:	8b 45 e8             	mov    -0x18(%ebp),%eax
40000ef5:	8b 55 08             	mov    0x8(%ebp),%edx
40000ef8:	89 10                	mov    %edx,(%eax)
40000efa:	8b 45 e0             	mov    -0x20(%ebp),%eax
40000efd:	c1 e0 0c             	shl    $0xc,%eax
40000f00:	3b 45 08             	cmp    0x8(%ebp),%eax
40000f03:	76 3e                	jbe    40000f43 <malloc+0xce>
40000f05:	e8 68 fe ff ff       	call   40000d72 <pop_unused_node>
40000f0a:	89 45 ec             	mov    %eax,-0x14(%ebp)
40000f0d:	8b 45 e8             	mov    -0x18(%ebp),%eax
40000f10:	8b 50 04             	mov    0x4(%eax),%edx
40000f13:	8b 45 e8             	mov    -0x18(%ebp),%eax
40000f16:	8b 00                	mov    (%eax),%eax
40000f18:	01 c2                	add    %eax,%edx
40000f1a:	8b 45 ec             	mov    -0x14(%ebp),%eax
40000f1d:	89 50 04             	mov    %edx,0x4(%eax)
40000f20:	8b 45 e0             	mov    -0x20(%ebp),%eax
40000f23:	c1 e0 0c             	shl    $0xc,%eax
40000f26:	89 c2                	mov    %eax,%edx
40000f28:	2b 55 08             	sub    0x8(%ebp),%edx
40000f2b:	8b 45 ec             	mov    -0x14(%ebp),%eax
40000f2e:	89 10                	mov    %edx,(%eax)
40000f30:	83 ec 08             	sub    $0x8,%esp
40000f33:	ff 75 ec             	pushl  -0x14(%ebp)
40000f36:	68 10 30 00 40       	push   $0x40003010
40000f3b:	e8 87 fd ff ff       	call   40000cc7 <append_to_list>
40000f40:	83 c4 10             	add    $0x10,%esp
40000f43:	83 ec 08             	sub    $0x8,%esp
40000f46:	ff 75 e8             	pushl  -0x18(%ebp)
40000f49:	68 0c 30 00 40       	push   $0x4000300c
40000f4e:	e8 74 fd ff ff       	call   40000cc7 <append_to_list>
40000f53:	83 c4 10             	add    $0x10,%esp
40000f56:	8b 45 e8             	mov    -0x18(%ebp),%eax
40000f59:	8b 40 04             	mov    0x4(%eax),%eax
40000f5c:	eb 7b                	jmp    40000fd9 <malloc+0x164>
40000f5e:	8b 45 dc             	mov    -0x24(%ebp),%eax
40000f61:	8b 00                	mov    (%eax),%eax
40000f63:	2b 45 08             	sub    0x8(%ebp),%eax
40000f66:	89 45 f0             	mov    %eax,-0x10(%ebp)
40000f69:	8b 45 dc             	mov    -0x24(%ebp),%eax
40000f6c:	8b 55 08             	mov    0x8(%ebp),%edx
40000f6f:	89 10                	mov    %edx,(%eax)
40000f71:	83 ec 08             	sub    $0x8,%esp
40000f74:	ff 75 dc             	pushl  -0x24(%ebp)
40000f77:	68 10 30 00 40       	push   $0x40003010
40000f7c:	e8 ef fc ff ff       	call   40000c70 <remove_from_list>
40000f81:	83 c4 10             	add    $0x10,%esp
40000f84:	83 ec 08             	sub    $0x8,%esp
40000f87:	ff 75 dc             	pushl  -0x24(%ebp)
40000f8a:	68 0c 30 00 40       	push   $0x4000300c
40000f8f:	e8 33 fd ff ff       	call   40000cc7 <append_to_list>
40000f94:	83 c4 10             	add    $0x10,%esp
40000f97:	83 7d f0 00          	cmpl   $0x0,-0x10(%ebp)
40000f9b:	74 36                	je     40000fd3 <malloc+0x15e>
40000f9d:	e8 d0 fd ff ff       	call   40000d72 <pop_unused_node>
40000fa2:	89 45 f4             	mov    %eax,-0xc(%ebp)
40000fa5:	8b 45 dc             	mov    -0x24(%ebp),%eax
40000fa8:	8b 50 04             	mov    0x4(%eax),%edx
40000fab:	8b 45 dc             	mov    -0x24(%ebp),%eax
40000fae:	8b 00                	mov    (%eax),%eax
40000fb0:	01 c2                	add    %eax,%edx
40000fb2:	8b 45 f4             	mov    -0xc(%ebp),%eax
40000fb5:	89 50 04             	mov    %edx,0x4(%eax)
40000fb8:	8b 45 f4             	mov    -0xc(%ebp),%eax
40000fbb:	8b 55 f0             	mov    -0x10(%ebp),%edx
40000fbe:	89 10                	mov    %edx,(%eax)
40000fc0:	83 ec 08             	sub    $0x8,%esp
40000fc3:	ff 75 f4             	pushl  -0xc(%ebp)
40000fc6:	68 10 30 00 40       	push   $0x40003010
40000fcb:	e8 f7 fc ff ff       	call   40000cc7 <append_to_list>
40000fd0:	83 c4 10             	add    $0x10,%esp
40000fd3:	8b 45 dc             	mov    -0x24(%ebp),%eax
40000fd6:	8b 40 04             	mov    0x4(%eax),%eax
40000fd9:	c9                   	leave  
40000fda:	c3                   	ret    

40000fdb <calloc>:
40000fdb:	55                   	push   %ebp
40000fdc:	89 e5                	mov    %esp,%ebp
40000fde:	83 ec 18             	sub    $0x18,%esp
40000fe1:	8b 45 08             	mov    0x8(%ebp),%eax
40000fe4:	0f af 45 0c          	imul   0xc(%ebp),%eax
40000fe8:	89 45 f0             	mov    %eax,-0x10(%ebp)
40000feb:	83 ec 0c             	sub    $0xc,%esp
40000fee:	ff 75 f0             	pushl  -0x10(%ebp)
40000ff1:	e8 7f fe ff ff       	call   40000e75 <malloc>
40000ff6:	83 c4 10             	add    $0x10,%esp
40000ff9:	89 45 f4             	mov    %eax,-0xc(%ebp)
40000ffc:	83 7d f4 00          	cmpl   $0x0,-0xc(%ebp)
40001000:	74 13                	je     40001015 <calloc+0x3a>
40001002:	83 ec 04             	sub    $0x4,%esp
40001005:	ff 75 f0             	pushl  -0x10(%ebp)
40001008:	6a 00                	push   $0x0
4000100a:	ff 75 f4             	pushl  -0xc(%ebp)
4000100d:	e8 06 f9 ff ff       	call   40000918 <memset>
40001012:	83 c4 10             	add    $0x10,%esp
40001015:	8b 45 f4             	mov    -0xc(%ebp),%eax
40001018:	c9                   	leave  
40001019:	c3                   	ret    

4000101a <realloc>:
4000101a:	55                   	push   %ebp
4000101b:	89 e5                	mov    %esp,%ebp
4000101d:	83 ec 18             	sub    $0x18,%esp
40001020:	c7 45 ec 00 00 00 00 	movl   $0x0,-0x14(%ebp)
40001027:	a1 0c 30 00 40       	mov    0x4000300c,%eax
4000102c:	89 45 f0             	mov    %eax,-0x10(%ebp)
4000102f:	eb 7a                	jmp    400010ab <realloc+0x91>
40001031:	8b 45 f0             	mov    -0x10(%ebp),%eax
40001034:	8b 50 04             	mov    0x4(%eax),%edx
40001037:	8b 45 08             	mov    0x8(%ebp),%eax
4000103a:	39 c2                	cmp    %eax,%edx
4000103c:	75 5e                	jne    4000109c <realloc+0x82>
4000103e:	83 7d 0c 00          	cmpl   $0x0,0xc(%ebp)
40001042:	75 15                	jne    40001059 <realloc+0x3f>
40001044:	83 ec 0c             	sub    $0xc,%esp
40001047:	ff 75 08             	pushl  0x8(%ebp)
4000104a:	e8 69 00 00 00       	call   400010b8 <free>
4000104f:	83 c4 10             	add    $0x10,%esp
40001052:	b8 00 00 00 00       	mov    $0x0,%eax
40001057:	eb 5d                	jmp    400010b6 <realloc+0x9c>
40001059:	83 ec 0c             	sub    $0xc,%esp
4000105c:	ff 75 0c             	pushl  0xc(%ebp)
4000105f:	e8 11 fe ff ff       	call   40000e75 <malloc>
40001064:	83 c4 10             	add    $0x10,%esp
40001067:	89 45 f4             	mov    %eax,-0xc(%ebp)
4000106a:	8b 45 f0             	mov    -0x10(%ebp),%eax
4000106d:	8b 10                	mov    (%eax),%edx
4000106f:	8b 45 f0             	mov    -0x10(%ebp),%eax
40001072:	8b 40 04             	mov    0x4(%eax),%eax
40001075:	83 ec 04             	sub    $0x4,%esp
40001078:	52                   	push   %edx
40001079:	50                   	push   %eax
4000107a:	ff 75 f4             	pushl  -0xc(%ebp)
4000107d:	e8 c4 f8 ff ff       	call   40000946 <memcpy>
40001082:	83 c4 10             	add    $0x10,%esp
40001085:	8b 45 f0             	mov    -0x10(%ebp),%eax
40001088:	8b 40 04             	mov    0x4(%eax),%eax
4000108b:	83 ec 0c             	sub    $0xc,%esp
4000108e:	50                   	push   %eax
4000108f:	e8 24 00 00 00       	call   400010b8 <free>
40001094:	83 c4 10             	add    $0x10,%esp
40001097:	8b 45 f4             	mov    -0xc(%ebp),%eax
4000109a:	eb 1a                	jmp    400010b6 <realloc+0x9c>
4000109c:	8b 45 f0             	mov    -0x10(%ebp),%eax
4000109f:	89 45 ec             	mov    %eax,-0x14(%ebp)
400010a2:	8b 45 f0             	mov    -0x10(%ebp),%eax
400010a5:	8b 40 08             	mov    0x8(%eax),%eax
400010a8:	89 45 f0             	mov    %eax,-0x10(%ebp)
400010ab:	83 7d f0 00          	cmpl   $0x0,-0x10(%ebp)
400010af:	75 80                	jne    40001031 <realloc+0x17>
400010b1:	b8 00 00 00 00       	mov    $0x0,%eax
400010b6:	c9                   	leave  
400010b7:	c3                   	ret    

400010b8 <free>:
400010b8:	55                   	push   %ebp
400010b9:	89 e5                	mov    %esp,%ebp
400010bb:	83 ec 10             	sub    $0x10,%esp
400010be:	c7 45 f8 00 00 00 00 	movl   $0x0,-0x8(%ebp)
400010c5:	a1 0c 30 00 40       	mov    0x4000300c,%eax
400010ca:	89 45 fc             	mov    %eax,-0x4(%ebp)
400010cd:	eb 29                	jmp    400010f8 <free+0x40>
400010cf:	8b 45 fc             	mov    -0x4(%ebp),%eax
400010d2:	8b 50 04             	mov    0x4(%eax),%edx
400010d5:	8b 45 08             	mov    0x8(%ebp),%eax
400010d8:	39 c2                	cmp    %eax,%edx
400010da:	75 0d                	jne    400010e9 <free+0x31>
400010dc:	ff 75 fc             	pushl  -0x4(%ebp)
400010df:	e8 c9 fc ff ff       	call   40000dad <merge_into_frees>
400010e4:	83 c4 04             	add    $0x4,%esp
400010e7:	eb 15                	jmp    400010fe <free+0x46>
400010e9:	8b 45 fc             	mov    -0x4(%ebp),%eax
400010ec:	89 45 f8             	mov    %eax,-0x8(%ebp)
400010ef:	8b 45 fc             	mov    -0x4(%ebp),%eax
400010f2:	8b 40 08             	mov    0x8(%eax),%eax
400010f5:	89 45 fc             	mov    %eax,-0x4(%ebp)
400010f8:	83 7d fc 00          	cmpl   $0x0,-0x4(%ebp)
400010fc:	75 d1                	jne    400010cf <free+0x17>
400010fe:	c9                   	leave  
400010ff:	c3                   	ret    

40001100 <vmm_alloc_cont>:
#include "stdint.h"
#include "stdio.h"
#include "process.h"
40001100:	55                   	push   %ebp
40001101:	89 e5                	mov    %esp,%ebp
40001103:	83 ec 28             	sub    $0x28,%esp
{
    if(argc < 2) {
        //printf("cat: No file specified\n");

        HANDLE in = fopen("/dev/urandom", FM_READ);

40001106:	c7 45 e0 cb 00 00 00 	movl   $0xcb,-0x20(%ebp)
4000110d:	8b 45 08             	mov    0x8(%ebp),%eax
40001110:	89 45 e4             	mov    %eax,-0x1c(%ebp)
40001113:	c7 45 e8 00 00 00 00 	movl   $0x0,-0x18(%ebp)
4000111a:	c7 45 ec 00 00 00 00 	movl   $0x0,-0x14(%ebp)
40001121:	c7 45 f0 00 00 00 00 	movl   $0x0,-0x10(%ebp)
40001128:	c7 45 f4 00 00 00 00 	movl   $0x0,-0xc(%ebp)
        char c;

4000112f:	83 ec 0c             	sub    $0xc,%esp
40001132:	8d 45 e0             	lea    -0x20(%ebp),%eax
40001135:	50                   	push   %eax
40001136:	e8 89 00 00 00       	call   400011c4 <syscall>
4000113b:	83 c4 10             	add    $0x10,%esp
        while(1) {
            fread(in, &c, sizeof(char));
4000113e:	8b 45 e0             	mov    -0x20(%ebp),%eax
            putchar(c);
40001141:	c9                   	leave  
40001142:	c3                   	ret    

40001143 <vmm_free>:
        }
    }
40001143:	55                   	push   %ebp
40001144:	89 e5                	mov    %esp,%ebp
40001146:	83 ec 28             	sub    $0x28,%esp
    return 0;
}
40001149:	8b 45 08             	mov    0x8(%ebp),%eax
4000114c:	c7 45 e0 cc 00 00 00 	movl   $0xcc,-0x20(%ebp)
40001153:	89 45 e4             	mov    %eax,-0x1c(%ebp)
40001156:	c7 45 e8 00 00 00 00 	movl   $0x0,-0x18(%ebp)
4000115d:	c7 45 ec 00 00 00 00 	movl   $0x0,-0x14(%ebp)
40001164:	c7 45 f0 00 00 00 00 	movl   $0x0,-0x10(%ebp)
4000116b:	c7 45 f4 00 00 00 00 	movl   $0x0,-0xc(%ebp)
40001172:	83 ec 0c             	sub    $0xc,%esp
40001175:	8d 45 e0             	lea    -0x20(%ebp),%eax
40001178:	50                   	push   %eax
40001179:	e8 46 00 00 00       	call   400011c4 <syscall>
4000117e:	83 c4 10             	add    $0x10,%esp
40001181:	c9                   	leave  
40001182:	c3                   	ret    

40001183 <print_memstat>:
40001183:	55                   	push   %ebp
40001184:	89 e5                	mov    %esp,%ebp
40001186:	83 ec 28             	sub    $0x28,%esp
40001189:	c7 45 e0 cd 00 00 00 	movl   $0xcd,-0x20(%ebp)
40001190:	c7 45 e4 00 00 00 00 	movl   $0x0,-0x1c(%ebp)
40001197:	c7 45 e8 00 00 00 00 	movl   $0x0,-0x18(%ebp)
4000119e:	c7 45 ec 00 00 00 00 	movl   $0x0,-0x14(%ebp)
400011a5:	c7 45 f0 00 00 00 00 	movl   $0x0,-0x10(%ebp)
400011ac:	c7 45 f4 00 00 00 00 	movl   $0x0,-0xc(%ebp)
400011b3:	83 ec 0c             	sub    $0xc,%esp
400011b6:	8d 45 e0             	lea    -0x20(%ebp),%eax
400011b9:	50                   	push   %eax
400011ba:	e8 05 00 00 00       	call   400011c4 <syscall>
400011bf:	83 c4 10             	add    $0x10,%esp
400011c2:	c9                   	leave  
400011c3:	c3                   	ret    

400011c4 <syscall>:
#include "stdint.h"
#include "stdio.h"
#include "process.h"
400011c4:	55                   	push   %ebp
400011c5:	89 e5                	mov    %esp,%ebp
400011c7:	57                   	push   %edi
400011c8:	56                   	push   %esi
400011c9:	53                   	push   %ebx
400011ca:	83 ec 0c             	sub    $0xc,%esp
        //printf("cat: No file specified\n");

        HANDLE in = fopen("/dev/urandom", FM_READ);

        char c;

400011cd:	8b 45 08             	mov    0x8(%ebp),%eax
400011d0:	8b 00                	mov    (%eax),%eax
400011d2:	89 45 ec             	mov    %eax,-0x14(%ebp)
        while(1) {
400011d5:	8b 55 08             	mov    0x8(%ebp),%edx
400011d8:	8b 5a 04             	mov    0x4(%edx),%ebx
            fread(in, &c, sizeof(char));
400011db:	8b 55 08             	mov    0x8(%ebp),%edx
400011de:	8b 4a 08             	mov    0x8(%edx),%ecx
            putchar(c);
400011e1:	8b 55 08             	mov    0x8(%ebp),%edx
400011e4:	8b 52 0c             	mov    0xc(%edx),%edx
400011e7:	89 55 e8             	mov    %edx,-0x18(%ebp)
        }
400011ea:	8b 75 08             	mov    0x8(%ebp),%esi
400011ed:	8b 76 10             	mov    0x10(%esi),%esi
    }
400011f0:	8b 7d 08             	mov    0x8(%ebp),%edi
400011f3:	8b 7f 14             	mov    0x14(%edi),%edi
#include "stdint.h"
#include "stdio.h"
#include "process.h"
 
400011f6:	8b 45 ec             	mov    -0x14(%ebp),%eax
400011f9:	8b 55 e8             	mov    -0x18(%ebp),%edx
400011fc:	cd 30                	int    $0x30
400011fe:	89 55 e8             	mov    %edx,-0x18(%ebp)
40001201:	89 45 f0             	mov    %eax,-0x10(%ebp)
40001204:	8b 45 08             	mov    0x8(%ebp),%eax
40001207:	89 45 ec             	mov    %eax,-0x14(%ebp)
4000120a:	8b 45 f0             	mov    -0x10(%ebp),%eax
4000120d:	8b 55 ec             	mov    -0x14(%ebp),%edx
40001210:	89 02                	mov    %eax,(%edx)
40001212:	8b 45 08             	mov    0x8(%ebp),%eax
40001215:	89 58 04             	mov    %ebx,0x4(%eax)
40001218:	8b 45 08             	mov    0x8(%ebp),%eax
4000121b:	89 48 08             	mov    %ecx,0x8(%eax)
4000121e:	8b 45 08             	mov    0x8(%ebp),%eax
40001221:	8b 55 e8             	mov    -0x18(%ebp),%edx
40001224:	89 50 0c             	mov    %edx,0xc(%eax)
40001227:	8b 45 08             	mov    0x8(%ebp),%eax
4000122a:	89 70 10             	mov    %esi,0x10(%eax)
4000122d:	8b 45 08             	mov    0x8(%ebp),%eax
40001230:	89 78 14             	mov    %edi,0x14(%eax)
        while(1) {
            fread(in, &c, sizeof(char));
            putchar(c);
        }
    }
    return 0;
40001233:	83 c4 0c             	add    $0xc,%esp
40001236:	5b                   	pop    %ebx
40001237:	5e                   	pop    %esi
40001238:	5f                   	pop    %edi
40001239:	5d                   	pop    %ebp
4000123a:	c3                   	ret    
	...

4000123c <return_rpc>:
#include "stdint.h"
#include "stdio.h"
#include "process.h"
 
int main(int argc, char* args[])
4000123c:	55                   	push   %ebp
4000123d:	89 e5                	mov    %esp,%ebp
4000123f:	83 ec 28             	sub    $0x28,%esp
{
    if(argc < 2) {
        //printf("cat: No file specified\n");
40001242:	8b 45 08             	mov    0x8(%ebp),%eax

        HANDLE in = fopen("/dev/urandom", FM_READ);

        char c;

40001245:	c7 45 e0 1e 00 00 00 	movl   $0x1e,-0x20(%ebp)
4000124c:	89 45 e4             	mov    %eax,-0x1c(%ebp)
4000124f:	c7 45 e8 00 00 00 00 	movl   $0x0,-0x18(%ebp)
40001256:	c7 45 ec 00 00 00 00 	movl   $0x0,-0x14(%ebp)
4000125d:	c7 45 f0 00 00 00 00 	movl   $0x0,-0x10(%ebp)
40001264:	c7 45 f4 00 00 00 00 	movl   $0x0,-0xc(%ebp)
        while(1) {
            fread(in, &c, sizeof(char));
4000126b:	83 ec 0c             	sub    $0xc,%esp
4000126e:	8d 45 e0             	lea    -0x20(%ebp),%eax
40001271:	50                   	push   %eax
40001272:	e8 4d ff ff ff       	call   400011c4 <syscall>
40001277:	83 c4 10             	add    $0x10,%esp
            putchar(c);
        }
4000127a:	eb fe                	jmp    4000127a <return_rpc+0x3e>

4000127c <call_rpc>:
    }
    return 0;
}
4000127c:	55                   	push   %ebp
4000127d:	89 e5                	mov    %esp,%ebp
4000127f:	83 ec 28             	sub    $0x28,%esp
40001282:	8b 55 08             	mov    0x8(%ebp),%edx
40001285:	8b 45 14             	mov    0x14(%ebp),%eax
40001288:	c7 45 e0 1f 00 00 00 	movl   $0x1f,-0x20(%ebp)
4000128f:	89 55 e4             	mov    %edx,-0x1c(%ebp)
40001292:	8b 55 0c             	mov    0xc(%ebp),%edx
40001295:	89 55 e8             	mov    %edx,-0x18(%ebp)
40001298:	8b 55 10             	mov    0x10(%ebp),%edx
4000129b:	89 55 ec             	mov    %edx,-0x14(%ebp)
4000129e:	89 45 f0             	mov    %eax,-0x10(%ebp)
400012a1:	c7 45 f4 00 00 00 00 	movl   $0x0,-0xc(%ebp)
400012a8:	83 ec 0c             	sub    $0xc,%esp
400012ab:	8d 45 e0             	lea    -0x20(%ebp),%eax
400012ae:	50                   	push   %eax
400012af:	e8 10 ff ff ff       	call   400011c4 <syscall>
400012b4:	83 c4 10             	add    $0x10,%esp
400012b7:	8b 45 e0             	mov    -0x20(%ebp),%eax
400012ba:	c9                   	leave  
400012bb:	c3                   	ret    

400012bc <fetch_rpc_data>:
400012bc:	55                   	push   %ebp
400012bd:	89 e5                	mov    %esp,%ebp
400012bf:	83 ec 28             	sub    $0x28,%esp
400012c2:	8b 45 08             	mov    0x8(%ebp),%eax
400012c5:	c7 45 e0 21 00 00 00 	movl   $0x21,-0x20(%ebp)
400012cc:	89 45 e4             	mov    %eax,-0x1c(%ebp)
400012cf:	c7 45 e8 00 00 00 00 	movl   $0x0,-0x18(%ebp)
400012d6:	c7 45 ec 00 00 00 00 	movl   $0x0,-0x14(%ebp)
400012dd:	c7 45 f0 00 00 00 00 	movl   $0x0,-0x10(%ebp)
400012e4:	c7 45 f4 00 00 00 00 	movl   $0x0,-0xc(%ebp)
400012eb:	83 ec 0c             	sub    $0xc,%esp
400012ee:	8d 45 e0             	lea    -0x20(%ebp),%eax
400012f1:	50                   	push   %eax
400012f2:	e8 cd fe ff ff       	call   400011c4 <syscall>
400012f7:	83 c4 10             	add    $0x10,%esp
400012fa:	c9                   	leave  
400012fb:	c3                   	ret    

400012fc <register_irq_rpc_syscall>:
400012fc:	55                   	push   %ebp
400012fd:	89 e5                	mov    %esp,%ebp
400012ff:	83 ec 28             	sub    $0x28,%esp
40001302:	c7 45 e0 28 00 00 00 	movl   $0x28,-0x20(%ebp)
40001309:	8b 45 08             	mov    0x8(%ebp),%eax
4000130c:	89 45 e4             	mov    %eax,-0x1c(%ebp)
4000130f:	c7 45 e8 00 00 00 00 	movl   $0x0,-0x18(%ebp)
40001316:	c7 45 ec 00 00 00 00 	movl   $0x0,-0x14(%ebp)
4000131d:	c7 45 f0 00 00 00 00 	movl   $0x0,-0x10(%ebp)
40001324:	c7 45 f4 00 00 00 00 	movl   $0x0,-0xc(%ebp)
4000132b:	83 ec 0c             	sub    $0xc,%esp
4000132e:	8d 45 e0             	lea    -0x20(%ebp),%eax
40001331:	50                   	push   %eax
40001332:	e8 8d fe ff ff       	call   400011c4 <syscall>
40001337:	83 c4 10             	add    $0x10,%esp
4000133a:	8b 45 e0             	mov    -0x20(%ebp),%eax
4000133d:	c9                   	leave  
4000133e:	c3                   	ret    

4000133f <register_irq_handler>:
4000133f:	55                   	push   %ebp
40001340:	89 e5                	mov    %esp,%ebp
40001342:	83 ec 08             	sub    $0x8,%esp
40001345:	83 ec 0c             	sub    $0xc,%esp
40001348:	ff 75 08             	pushl  0x8(%ebp)
4000134b:	e8 ac ff ff ff       	call   400012fc <register_irq_rpc_syscall>
40001350:	83 c4 10             	add    $0x10,%esp
40001353:	85 c0                	test   %eax,%eax
40001355:	74 14                	je     4000136b <register_irq_handler+0x2c>
40001357:	8b 45 08             	mov    0x8(%ebp),%eax
4000135a:	8b 55 0c             	mov    0xc(%ebp),%edx
4000135d:	89 14 85 20 30 00 40 	mov    %edx,0x40003020(,%eax,4)
40001364:	b8 01 00 00 00       	mov    $0x1,%eax
40001369:	eb 05                	jmp    40001370 <register_irq_handler+0x31>
4000136b:	b8 00 00 00 00       	mov    $0x0,%eax
40001370:	c9                   	leave  
40001371:	c3                   	ret    

40001372 <_handle_rpc>:
40001372:	55                   	push   %ebp
40001373:	89 e5                	mov    %esp,%ebp
40001375:	83 ec 18             	sub    $0x18,%esp
40001378:	83 ec 0c             	sub    $0xc,%esp
4000137b:	ff 75 10             	pushl  0x10(%ebp)
4000137e:	e8 f2 fa ff ff       	call   40000e75 <malloc>
40001383:	83 c4 10             	add    $0x10,%esp
40001386:	89 45 f4             	mov    %eax,-0xc(%ebp)
40001389:	83 ec 0c             	sub    $0xc,%esp
4000138c:	ff 75 f4             	pushl  -0xc(%ebp)
4000138f:	e8 28 ff ff ff       	call   400012bc <fetch_rpc_data>
40001394:	83 c4 10             	add    $0x10,%esp
40001397:	83 7d 08 00          	cmpl   $0x0,0x8(%ebp)
4000139b:	75 30                	jne    400013cd <_handle_rpc+0x5b>
4000139d:	8b 45 0c             	mov    0xc(%ebp),%eax
400013a0:	8b 04 85 20 30 00 40 	mov    0x40003020(,%eax,4),%eax
400013a7:	85 c0                	test   %eax,%eax
400013a9:	74 22                	je     400013cd <_handle_rpc+0x5b>
400013ab:	8b 45 0c             	mov    0xc(%ebp),%eax
400013ae:	8b 04 85 20 30 00 40 	mov    0x40003020(,%eax,4),%eax
400013b5:	83 ec 0c             	sub    $0xc,%esp
400013b8:	ff 75 0c             	pushl  0xc(%ebp)
400013bb:	ff d0                	call   *%eax
400013bd:	83 c4 10             	add    $0x10,%esp
400013c0:	83 ec 0c             	sub    $0xc,%esp
400013c3:	6a 00                	push   $0x0
400013c5:	e8 72 fe ff ff       	call   4000123c <return_rpc>
400013ca:	83 c4 10             	add    $0x10,%esp
400013cd:	83 ec 0c             	sub    $0xc,%esp
400013d0:	68 c4 20 00 40       	push   $0x400020c4
400013d5:	e8 c1 f3 ff ff       	call   4000079b <printf>
400013da:	83 c4 10             	add    $0x10,%esp
400013dd:	83 ec 0c             	sub    $0xc,%esp
400013e0:	ff 75 f4             	pushl  -0xc(%ebp)
400013e3:	e8 d0 fc ff ff       	call   400010b8 <free>
400013e8:	83 c4 10             	add    $0x10,%esp
400013eb:	83 ec 0c             	sub    $0xc,%esp
400013ee:	6a 00                	push   $0x0
400013f0:	e8 47 fe ff ff       	call   4000123c <return_rpc>
400013f5:	83 c4 10             	add    $0x10,%esp
400013f8:	c9                   	leave  
400013f9:	c3                   	ret    

400013fa <set_rpc_handler>:
400013fa:	55                   	push   %ebp
400013fb:	89 e5                	mov    %esp,%ebp
400013fd:	57                   	push   %edi
400013fe:	56                   	push   %esi
400013ff:	53                   	push   %ebx
40001400:	83 ec 2c             	sub    $0x2c,%esp
40001403:	83 ec 04             	sub    $0x4,%esp
40001406:	68 00 02 00 00       	push   $0x200
4000140b:	6a 00                	push   $0x0
4000140d:	68 20 30 00 40       	push   $0x40003020
40001412:	e8 01 f5 ff ff       	call   40000918 <memset>
40001417:	83 c4 10             	add    $0x10,%esp
4000141a:	8d 55 d0             	lea    -0x30(%ebp),%edx
4000141d:	bb c0 21 00 40       	mov    $0x400021c0,%ebx
40001422:	b8 06 00 00 00       	mov    $0x6,%eax
40001427:	89 d7                	mov    %edx,%edi
40001429:	89 de                	mov    %ebx,%esi
4000142b:	89 c1                	mov    %eax,%ecx
4000142d:	f3 a5                	rep movsl %ds:(%esi),%es:(%edi)
4000142f:	83 ec 0c             	sub    $0xc,%esp
40001432:	8d 45 d0             	lea    -0x30(%ebp),%eax
40001435:	50                   	push   %eax
40001436:	e8 89 fd ff ff       	call   400011c4 <syscall>
4000143b:	83 c4 10             	add    $0x10,%esp
4000143e:	8d 65 f4             	lea    -0xc(%ebp),%esp
40001441:	83 c4 00             	add    $0x0,%esp
40001444:	5b                   	pop    %ebx
40001445:	5e                   	pop    %esi
40001446:	5f                   	pop    %edi
40001447:	5d                   	pop    %ebp
40001448:	c3                   	ret    

40001449 <getargs>:
#include "stdio.h"
#include "process.h"
 
int main(int argc, char* args[])
{
    if(argc < 2) {
40001449:	55                   	push   %ebp
4000144a:	89 e5                	mov    %esp,%ebp
4000144c:	83 ec 28             	sub    $0x28,%esp
        HANDLE in = fopen("/dev/urandom", FM_READ);

        char c;

        while(1) {
            fread(in, &c, sizeof(char));
4000144f:	c7 45 e0 04 00 00 00 	movl   $0x4,-0x20(%ebp)
40001456:	c7 45 e4 00 00 00 00 	movl   $0x0,-0x1c(%ebp)
4000145d:	c7 45 e8 00 00 00 00 	movl   $0x0,-0x18(%ebp)
40001464:	c7 45 ec 00 00 00 00 	movl   $0x0,-0x14(%ebp)
4000146b:	c7 45 f0 00 00 00 00 	movl   $0x0,-0x10(%ebp)
40001472:	c7 45 f4 00 00 00 00 	movl   $0x0,-0xc(%ebp)
            putchar(c);
        }
40001479:	83 ec 0c             	sub    $0xc,%esp
4000147c:	8d 45 e0             	lea    -0x20(%ebp),%eax
4000147f:	50                   	push   %eax
40001480:	e8 3f fd ff ff       	call   400011c4 <syscall>
40001485:	83 c4 10             	add    $0x10,%esp
    }
    return 0;
40001488:	8b 45 e0             	mov    -0x20(%ebp),%eax
}
4000148b:	c9                   	leave  
4000148c:	c3                   	ret    

4000148d <_start>:
4000148d:	55                   	push   %ebp
4000148e:	89 e5                	mov    %esp,%ebp
40001490:	83 ec 18             	sub    $0x18,%esp
40001493:	e8 b1 ff ff ff       	call   40001449 <getargs>
40001498:	89 45 ec             	mov    %eax,-0x14(%ebp)
4000149b:	c7 45 f0 00 00 00 00 	movl   $0x0,-0x10(%ebp)
400014a2:	83 7d ec 00          	cmpl   $0x0,-0x14(%ebp)
400014a6:	74 14                	je     400014bc <_start+0x2f>
400014a8:	eb 03                	jmp    400014ad <_start+0x20>
400014aa:	ff 45 f0             	incl   -0x10(%ebp)
400014ad:	8b 45 f0             	mov    -0x10(%ebp),%eax
400014b0:	c1 e0 02             	shl    $0x2,%eax
400014b3:	03 45 ec             	add    -0x14(%ebp),%eax
400014b6:	8b 00                	mov    (%eax),%eax
400014b8:	85 c0                	test   %eax,%eax
400014ba:	75 ee                	jne    400014aa <_start+0x1d>
400014bc:	e8 39 ff ff ff       	call   400013fa <set_rpc_handler>
400014c1:	83 ec 08             	sub    $0x8,%esp
400014c4:	ff 75 ec             	pushl  -0x14(%ebp)
400014c7:	ff 75 f0             	pushl  -0x10(%ebp)
400014ca:	e8 31 eb ff ff       	call   40000000 <main>
400014cf:	83 c4 10             	add    $0x10,%esp
400014d2:	89 45 f4             	mov    %eax,-0xc(%ebp)
400014d5:	83 ec 0c             	sub    $0xc,%esp
400014d8:	ff 75 f4             	pushl  -0xc(%ebp)
400014db:	e8 46 00 00 00       	call   40001526 <exit>
400014e0:	83 c4 10             	add    $0x10,%esp
400014e3:	c9                   	leave  
400014e4:	c3                   	ret    

400014e5 <yield>:
400014e5:	55                   	push   %ebp
400014e6:	89 e5                	mov    %esp,%ebp
400014e8:	83 ec 28             	sub    $0x28,%esp
400014eb:	c7 45 e0 05 00 00 00 	movl   $0x5,-0x20(%ebp)
400014f2:	c7 45 e4 00 00 00 00 	movl   $0x0,-0x1c(%ebp)
400014f9:	c7 45 e8 00 00 00 00 	movl   $0x0,-0x18(%ebp)
40001500:	c7 45 ec 00 00 00 00 	movl   $0x0,-0x14(%ebp)
40001507:	c7 45 f0 00 00 00 00 	movl   $0x0,-0x10(%ebp)
4000150e:	c7 45 f4 00 00 00 00 	movl   $0x0,-0xc(%ebp)
40001515:	83 ec 0c             	sub    $0xc,%esp
40001518:	8d 45 e0             	lea    -0x20(%ebp),%eax
4000151b:	50                   	push   %eax
4000151c:	e8 a3 fc ff ff       	call   400011c4 <syscall>
40001521:	83 c4 10             	add    $0x10,%esp
40001524:	c9                   	leave  
40001525:	c3                   	ret    

40001526 <exit>:
40001526:	55                   	push   %ebp
40001527:	89 e5                	mov    %esp,%ebp
40001529:	83 ec 28             	sub    $0x28,%esp
4000152c:	8b 45 08             	mov    0x8(%ebp),%eax
4000152f:	c7 45 e0 01 00 00 00 	movl   $0x1,-0x20(%ebp)
40001536:	89 45 e4             	mov    %eax,-0x1c(%ebp)
40001539:	c7 45 e8 00 00 00 00 	movl   $0x0,-0x18(%ebp)
40001540:	c7 45 ec 00 00 00 00 	movl   $0x0,-0x14(%ebp)
40001547:	c7 45 f0 00 00 00 00 	movl   $0x0,-0x10(%ebp)
4000154e:	c7 45 f4 00 00 00 00 	movl   $0x0,-0xc(%ebp)
40001555:	83 ec 0c             	sub    $0xc,%esp
40001558:	8d 45 e0             	lea    -0x20(%ebp),%eax
4000155b:	50                   	push   %eax
4000155c:	e8 63 fc ff ff       	call   400011c4 <syscall>
40001561:	83 c4 10             	add    $0x10,%esp
40001564:	83 ec 0c             	sub    $0xc,%esp
40001567:	68 d4 20 00 40       	push   $0x400020d4
4000156c:	e8 2a f2 ff ff       	call   4000079b <printf>
40001571:	83 c4 10             	add    $0x10,%esp
40001574:	eb ee                	jmp    40001564 <exit+0x3e>

40001576 <getExecPath>:
40001576:	55                   	push   %ebp
40001577:	89 e5                	mov    %esp,%ebp
40001579:	83 ec 28             	sub    $0x28,%esp
4000157c:	8b 45 08             	mov    0x8(%ebp),%eax
4000157f:	c7 45 e0 06 00 00 00 	movl   $0x6,-0x20(%ebp)
40001586:	89 45 e4             	mov    %eax,-0x1c(%ebp)
40001589:	c7 45 e8 00 00 00 00 	movl   $0x0,-0x18(%ebp)
40001590:	c7 45 ec 00 00 00 00 	movl   $0x0,-0x14(%ebp)
40001597:	c7 45 f0 00 00 00 00 	movl   $0x0,-0x10(%ebp)
4000159e:	c7 45 f4 00 00 00 00 	movl   $0x0,-0xc(%ebp)
400015a5:	83 ec 0c             	sub    $0xc,%esp
400015a8:	8d 45 e0             	lea    -0x20(%ebp),%eax
400015ab:	50                   	push   %eax
400015ac:	e8 13 fc ff ff       	call   400011c4 <syscall>
400015b1:	83 c4 10             	add    $0x10,%esp
400015b4:	c9                   	leave  
400015b5:	c3                   	ret    

400015b6 <changeExecPath>:
400015b6:	55                   	push   %ebp
400015b7:	89 e5                	mov    %esp,%ebp
400015b9:	83 ec 28             	sub    $0x28,%esp
400015bc:	8b 45 08             	mov    0x8(%ebp),%eax
400015bf:	c7 45 e0 07 00 00 00 	movl   $0x7,-0x20(%ebp)
400015c6:	89 45 e4             	mov    %eax,-0x1c(%ebp)
400015c9:	c7 45 e8 00 00 00 00 	movl   $0x0,-0x18(%ebp)
400015d0:	c7 45 ec 00 00 00 00 	movl   $0x0,-0x14(%ebp)
400015d7:	c7 45 f0 00 00 00 00 	movl   $0x0,-0x10(%ebp)
400015de:	c7 45 f4 00 00 00 00 	movl   $0x0,-0xc(%ebp)
400015e5:	83 ec 0c             	sub    $0xc,%esp
400015e8:	8d 45 e0             	lea    -0x20(%ebp),%eax
400015eb:	50                   	push   %eax
400015ec:	e8 d3 fb ff ff       	call   400011c4 <syscall>
400015f1:	83 c4 10             	add    $0x10,%esp
400015f4:	8b 45 e0             	mov    -0x20(%ebp),%eax
400015f7:	c9                   	leave  
400015f8:	c3                   	ret    

400015f9 <cd>:
400015f9:	55                   	push   %ebp
400015fa:	89 e5                	mov    %esp,%ebp
400015fc:	83 ec 08             	sub    $0x8,%esp
400015ff:	83 ec 0c             	sub    $0xc,%esp
40001602:	ff 75 08             	pushl  0x8(%ebp)
40001605:	e8 ac ff ff ff       	call   400015b6 <changeExecPath>
4000160a:	83 c4 10             	add    $0x10,%esp
4000160d:	85 c0                	test   %eax,%eax
4000160f:	75 14                	jne    40001625 <cd+0x2c>
40001611:	e8 4e ea ff ff       	call   40000064 <getLastVFSErr>
40001616:	83 ec 08             	sub    $0x8,%esp
40001619:	50                   	push   %eax
4000161a:	ff 75 08             	pushl  0x8(%ebp)
4000161d:	e8 80 00 00 00       	call   400016a2 <printFilesystemError>
40001622:	83 c4 10             	add    $0x10,%esp
40001625:	c9                   	leave  
40001626:	c3                   	ret    

40001627 <exec>:
40001627:	55                   	push   %ebp
40001628:	89 e5                	mov    %esp,%ebp
4000162a:	83 ec 28             	sub    $0x28,%esp
4000162d:	8b 55 08             	mov    0x8(%ebp),%edx
40001630:	8b 45 0c             	mov    0xc(%ebp),%eax
40001633:	c7 45 e0 03 00 00 00 	movl   $0x3,-0x20(%ebp)
4000163a:	89 55 e4             	mov    %edx,-0x1c(%ebp)
4000163d:	89 45 e8             	mov    %eax,-0x18(%ebp)
40001640:	c7 45 ec 00 00 00 00 	movl   $0x0,-0x14(%ebp)
40001647:	c7 45 f0 00 00 00 00 	movl   $0x0,-0x10(%ebp)
4000164e:	c7 45 f4 00 00 00 00 	movl   $0x0,-0xc(%ebp)
40001655:	83 ec 0c             	sub    $0xc,%esp
40001658:	8d 45 e0             	lea    -0x20(%ebp),%eax
4000165b:	50                   	push   %eax
4000165c:	e8 63 fb ff ff       	call   400011c4 <syscall>
40001661:	83 c4 10             	add    $0x10,%esp
40001664:	8b 45 e0             	mov    -0x20(%ebp),%eax
40001667:	c9                   	leave  
40001668:	c3                   	ret    

40001669 <texec>:
40001669:	55                   	push   %ebp
4000166a:	89 e5                	mov    %esp,%ebp
4000166c:	83 ec 18             	sub    $0x18,%esp
4000166f:	83 ec 08             	sub    $0x8,%esp
40001672:	ff 75 0c             	pushl  0xc(%ebp)
40001675:	ff 75 08             	pushl  0x8(%ebp)
40001678:	e8 aa ff ff ff       	call   40001627 <exec>
4000167d:	83 c4 10             	add    $0x10,%esp
40001680:	89 45 f4             	mov    %eax,-0xc(%ebp)
40001683:	83 7d f4 00          	cmpl   $0x0,-0xc(%ebp)
40001687:	75 14                	jne    4000169d <texec+0x34>
40001689:	e8 d6 e9 ff ff       	call   40000064 <getLastVFSErr>
4000168e:	83 ec 08             	sub    $0x8,%esp
40001691:	50                   	push   %eax
40001692:	ff 75 08             	pushl  0x8(%ebp)
40001695:	e8 08 00 00 00       	call   400016a2 <printFilesystemError>
4000169a:	83 c4 10             	add    $0x10,%esp
4000169d:	8b 45 f4             	mov    -0xc(%ebp),%eax
400016a0:	c9                   	leave  
400016a1:	c3                   	ret    

400016a2 <printFilesystemError>:
400016a2:	55                   	push   %ebp
400016a3:	89 e5                	mov    %esp,%ebp
400016a5:	83 ec 08             	sub    $0x8,%esp
400016a8:	83 7d 0c 05          	cmpl   $0x5,0xc(%ebp)
400016ac:	0f 87 8c 00 00 00    	ja     4000173e <printFilesystemError+0x9c>
400016b2:	8b 45 0c             	mov    0xc(%ebp),%eax
400016b5:	c1 e0 02             	shl    $0x2,%eax
400016b8:	8b 80 a8 21 00 40    	mov    0x400021a8(%eax),%eax
400016be:	ff e0                	jmp    *%eax
400016c0:	83 ec 08             	sub    $0x8,%esp
400016c3:	ff 75 08             	pushl  0x8(%ebp)
400016c6:	68 db 20 00 40       	push   $0x400020db
400016cb:	e8 cb f0 ff ff       	call   4000079b <printf>
400016d0:	83 c4 10             	add    $0x10,%esp
400016d3:	eb 7c                	jmp    40001751 <printFilesystemError+0xaf>
400016d5:	83 ec 08             	sub    $0x8,%esp
400016d8:	ff 75 08             	pushl  0x8(%ebp)
400016db:	68 f0 20 00 40       	push   $0x400020f0
400016e0:	e8 b6 f0 ff ff       	call   4000079b <printf>
400016e5:	83 c4 10             	add    $0x10,%esp
400016e8:	eb 67                	jmp    40001751 <printFilesystemError+0xaf>
400016ea:	83 ec 08             	sub    $0x8,%esp
400016ed:	ff 75 08             	pushl  0x8(%ebp)
400016f0:	68 10 21 00 40       	push   $0x40002110
400016f5:	e8 a1 f0 ff ff       	call   4000079b <printf>
400016fa:	83 c4 10             	add    $0x10,%esp
400016fd:	eb 52                	jmp    40001751 <printFilesystemError+0xaf>
400016ff:	83 ec 08             	sub    $0x8,%esp
40001702:	ff 75 08             	pushl  0x8(%ebp)
40001705:	68 3a 21 00 40       	push   $0x4000213a
4000170a:	e8 8c f0 ff ff       	call   4000079b <printf>
4000170f:	83 c4 10             	add    $0x10,%esp
40001712:	eb 3d                	jmp    40001751 <printFilesystemError+0xaf>
40001714:	83 ec 08             	sub    $0x8,%esp
40001717:	ff 75 08             	pushl  0x8(%ebp)
4000171a:	68 50 21 00 40       	push   $0x40002150
4000171f:	e8 77 f0 ff ff       	call   4000079b <printf>
40001724:	83 c4 10             	add    $0x10,%esp
40001727:	eb 28                	jmp    40001751 <printFilesystemError+0xaf>
40001729:	83 ec 08             	sub    $0x8,%esp
4000172c:	ff 75 08             	pushl  0x8(%ebp)
4000172f:	68 8b 21 00 40       	push   $0x4000218b
40001734:	e8 62 f0 ff ff       	call   4000079b <printf>
40001739:	83 c4 10             	add    $0x10,%esp
4000173c:	eb 13                	jmp    40001751 <printFilesystemError+0xaf>
4000173e:	83 ec 08             	sub    $0x8,%esp
40001741:	ff 75 08             	pushl  0x8(%ebp)
40001744:	68 9e 21 00 40       	push   $0x4000219e
40001749:	e8 4d f0 ff ff       	call   4000079b <printf>
4000174e:	83 c4 10             	add    $0x10,%esp
40001751:	83 ec 0c             	sub    $0xc,%esp
40001754:	68 a6 21 00 40       	push   $0x400021a6
40001759:	e8 3d f0 ff ff       	call   4000079b <printf>
4000175e:	83 c4 10             	add    $0x10,%esp
40001761:	c9                   	leave  
40001762:	c3                   	ret    
